---
triple:          'x86_64-apple-darwin'
binary-path:     '/Users/aaronjardenil/Documents/GitHub/csopesy-osemulator/main'
relocations:
  - { offsetInCU: 0x31A9, offset: 0x31A9, size: 0x8, addend: 0x0, symName: __ZNSt3__124__put_character_sequenceB8ue170006IcNS_11char_traitsIcEEEERNS_13basic_ostreamIT_T0_EES7_PKS4_m, symObjAddr: 0x930, symBinAddr: 0x100001B00, symSize: 0x1F0 }
  - { offsetInCU: 0x4D13, offset: 0x4D13, size: 0x8, addend: 0x0, symName: __ZNSt3__1lsB8ue170006INS_11char_traitsIcEEEERNS_13basic_ostreamIcT_EES6_PKc, symObjAddr: 0x590, symBinAddr: 0x100001760, symSize: 0x40 }
  - { offsetInCU: 0x4D59, offset: 0x4D59, size: 0x8, addend: 0x0, symName: __ZNSt3__17getlineB8ue170006IcNS_11char_traitsIcEENS_9allocatorIcEEEERNS_13basic_istreamIT_T0_EES9_RNS_12basic_stringIS6_S7_T1_EE, symObjAddr: 0x5D0, symBinAddr: 0x1000017A0, symSize: 0x50 }
  - { offsetInCU: 0x4DB1, offset: 0x4DB1, size: 0x8, addend: 0x0, symName: __ZNSt3__1eqB8ue170006IcNS_11char_traitsIcEENS_9allocatorIcEEEEbRKNS_12basic_stringIT_T0_T1_EEPKS6_, symObjAddr: 0x620, symBinAddr: 0x1000017F0, symSize: 0x90 }
  - { offsetInCU: 0x4E18, offset: 0x4E18, size: 0x8, addend: 0x0, symName: __ZNSt3__14endlB8ue170006IcNS_11char_traitsIcEEEERNS_13basic_ostreamIT_T0_EES7_, symObjAddr: 0x6D0, symBinAddr: 0x1000018A0, symSize: 0x50 }
  - { offsetInCU: 0x4E58, offset: 0x4E58, size: 0x8, addend: 0x0, symName: __ZNSt3__116__pad_and_outputB8ue170006IcNS_11char_traitsIcEEEENS_19ostreambuf_iteratorIT_T0_EES6_PKS4_S8_S8_RNS_8ios_baseES4_, symObjAddr: 0xB70, symBinAddr: 0x100001D40, symSize: 0x220 }
  - { offsetInCU: 0x4F28, offset: 0x4F28, size: 0x8, addend: 0x0, symName: __ZNSt3__112__to_addressB8ue170006IKcEEPT_S3_, symObjAddr: 0xFD0, symBinAddr: 0x1000021A0, symSize: 0x10 }
  - { offsetInCU: 0x4F90, offset: 0x4F90, size: 0x8, addend: 0x0, symName: __ZNSt3__19use_facetB8ue170006INS_5ctypeIcEEEERKT_RKNS_6localeE, symObjAddr: 0x1230, symBinAddr: 0x100002400, symSize: 0x30 }
  - { offsetInCU: 0x545D, offset: 0x545D, size: 0x8, addend: 0x0, symName: __ZNSt3__118__constexpr_strlenB8ue170006EPKc, symObjAddr: 0x12C0, symBinAddr: 0x100002490, symSize: 0x20 }
  - { offsetInCU: 0x5489, offset: 0x5489, size: 0x8, addend: 0x0, symName: __ZNSt3__17getlineB8ue170006IcNS_11char_traitsIcEENS_9allocatorIcEEEERNS_13basic_istreamIT_T0_EES9_RNS_12basic_stringIS6_S7_T1_EES6_, symObjAddr: 0x12E0, symBinAddr: 0x1000024B0, symSize: 0x220 }
  - { offsetInCU: 0x5D07, offset: 0x5D07, size: 0x8, addend: 0x0, symName: __ZNSt3__111__str_rfindB8ue170006IcmNS_11char_traitsIcEELm18446744073709551615EEET0_PKT_S3_S6_S3_S3_, symObjAddr: 0x19D0, symBinAddr: 0x100002BA0, symSize: 0x100 }
  - { offsetInCU: 0x5DAE, offset: 0x5DAE, size: 0x8, addend: 0x0, symName: __ZNSt3__13minB8ue170006ImEERKT_S3_S3_, symObjAddr: 0x1AD0, symBinAddr: 0x100002CA0, symSize: 0x30 }
  - { offsetInCU: 0x5DF1, offset: 0x5DF1, size: 0x8, addend: 0x0, symName: __ZNSt3__118__find_end_classicB8ue170006IPKcS2_FbccEEET_S4_S4_T0_S5_RT1_, symObjAddr: 0x1B00, symBinAddr: 0x100002CD0, symSize: 0x60 }
  - { offsetInCU: 0x5E7E, offset: 0x5E7E, size: 0x8, addend: 0x0, symName: __ZNSt3__13minB8ue170006ImNS_6__lessIvvEEEERKT_S5_S5_T0_, symObjAddr: 0x1B60, symBinAddr: 0x100002D30, symSize: 0x50 }
  - { offsetInCU: 0x5F1D, offset: 0x5F1D, size: 0x8, addend: 0x0, symName: __ZNSt3__115__find_end_implB8ue170006INS_17_ClassicAlgPolicyEPKcS3_S3_S3_FbccENS_10__identityES5_EENS_4pairIT0_S7_EES7_T1_T2_T3_RT4_RT5_RT6_NS_20forward_iterator_tagESI_, symObjAddr: 0x1BE0, symBinAddr: 0x100002DB0, symSize: 0x1E0 }
  - { offsetInCU: 0x6158, offset: 0x6158, size: 0x8, addend: 0x0, symName: __ZNSt3__18__invokeB8ue170006IRFbccEJRKcS4_EEEDTclclsr3stdE7declvalIT_EEspclsr3stdE7declvalIT0_EEEEOS5_DpOS6_, symObjAddr: 0x1E10, symBinAddr: 0x100002FE0, symSize: 0x40 }
  - { offsetInCU: 0x61BD, offset: 0x61BD, size: 0x8, addend: 0x0, symName: __ZNSt3__18__invokeB8ue170006IRNS_10__identityEJRKcEEEDTclclsr3stdE7declvalIT_EEspclsr3stdE7declvalIT0_EEEEOS5_DpOS6_, symObjAddr: 0x1E50, symBinAddr: 0x100003020, symSize: 0x30 }
  - { offsetInCU: 0x88FF, offset: 0x88FF, size: 0x8, addend: 0x0, symName: _main, symObjAddr: 0x0, symBinAddr: 0x1000011D0, symSize: 0x570 }
  - { offsetInCU: 0x8935, offset: 0x8935, size: 0x8, addend: 0x0, symName: __ZNSt3__112basic_stringIcNS_11char_traitsIcEENS_9allocatorIcEEEC1B8ue170006Ev, symObjAddr: 0x570, symBinAddr: 0x100001740, symSize: 0x20 }
  - { offsetInCU: 0x895F, offset: 0x895F, size: 0x8, addend: 0x0, symName: __ZNSt3__113basic_ostreamIcNS_11char_traitsIcEEElsB8ue170006EPFRS3_S4_E, symObjAddr: 0x6B0, symBinAddr: 0x100001880, symSize: 0x20 }
  - { offsetInCU: 0x8993, offset: 0x8993, size: 0x8, addend: 0x0, symName: __ZNKSt3__112basic_stringIcNS_11char_traitsIcEENS_9allocatorIcEEE5rfindB8ue170006EPKcm, symObjAddr: 0x720, symBinAddr: 0x1000018F0, symSize: 0x70 }
  - { offsetInCU: 0x89D9, offset: 0x89D9, size: 0x8, addend: 0x0, symName: __ZNSt3__112basic_stringIcNS_11char_traitsIcEENS_9allocatorIcEEEC2B8ue170006Ev, symObjAddr: 0x790, symBinAddr: 0x100001960, symSize: 0x50 }
  - { offsetInCU: 0x8A08, offset: 0x8A08, size: 0x8, addend: 0x0, symName: __ZNSt3__117__compressed_pairINS_12basic_stringIcNS_11char_traitsIcEENS_9allocatorIcEEE5__repES5_EC1B8ue170006INS_18__default_init_tagESA_EEOT_OT0_, symObjAddr: 0x7E0, symBinAddr: 0x1000019B0, symSize: 0x30 }
  - { offsetInCU: 0x8A60, offset: 0x8A60, size: 0x8, addend: 0x0, symName: __ZNSt3__112basic_stringIcNS_11char_traitsIcEENS_9allocatorIcEEE14__default_initB8ue170006Ev, symObjAddr: 0x820, symBinAddr: 0x1000019F0, symSize: 0x50 }
  - { offsetInCU: 0x8A86, offset: 0x8A86, size: 0x8, addend: 0x0, symName: __ZNSt3__117__compressed_pairINS_12basic_stringIcNS_11char_traitsIcEENS_9allocatorIcEEE5__repES5_EC2B8ue170006INS_18__default_init_tagESA_EEOT_OT0_, symObjAddr: 0x870, symBinAddr: 0x100001A40, symSize: 0x30 }
  - { offsetInCU: 0x8ADE, offset: 0x8ADE, size: 0x8, addend: 0x0, symName: __ZNSt3__122__compressed_pair_elemINS_12basic_stringIcNS_11char_traitsIcEENS_9allocatorIcEEE5__repELi0ELb0EEC2B8ue170006ENS_18__default_init_tagE, symObjAddr: 0x8A0, symBinAddr: 0x100001A70, symSize: 0x10 }
  - { offsetInCU: 0x8B12, offset: 0x8B12, size: 0x8, addend: 0x0, symName: __ZNSt3__122__compressed_pair_elemINS_9allocatorIcEELi1ELb1EEC2B8ue170006ENS_18__default_init_tagE, symObjAddr: 0x8B0, symBinAddr: 0x100001A80, symSize: 0x20 }
  - { offsetInCU: 0x8B46, offset: 0x8B46, size: 0x8, addend: 0x0, symName: __ZNSt3__19allocatorIcEC2B8ue170006Ev, symObjAddr: 0x8D0, symBinAddr: 0x100001AA0, symSize: 0x20 }
  - { offsetInCU: 0x8B70, offset: 0x8B70, size: 0x8, addend: 0x0, symName: __ZNSt3__116__non_trivial_ifILb1ENS_9allocatorIcEEEC2B8ue170006Ev, symObjAddr: 0x8F0, symBinAddr: 0x100001AC0, symSize: 0x10 }
  - { offsetInCU: 0x8B9A, offset: 0x8B9A, size: 0x8, addend: 0x0, symName: __ZNSt3__117__compressed_pairINS_12basic_stringIcNS_11char_traitsIcEENS_9allocatorIcEEE5__repES5_E5firstB8ue170006Ev, symObjAddr: 0x900, symBinAddr: 0x100001AD0, symSize: 0x20 }
  - { offsetInCU: 0x8BC0, offset: 0x8BC0, size: 0x8, addend: 0x0, symName: __ZNSt3__122__compressed_pair_elemINS_12basic_stringIcNS_11char_traitsIcEENS_9allocatorIcEEE5__repELi0ELb0EE5__getB8ue170006Ev, symObjAddr: 0x920, symBinAddr: 0x100001AF0, symSize: 0x10 }
  - { offsetInCU: 0x8BE6, offset: 0x8BE6, size: 0x8, addend: 0x0, symName: __ZNSt3__111char_traitsIcE6lengthB8ue170006EPKc, symObjAddr: 0xB20, symBinAddr: 0x100001CF0, symSize: 0x30 }
  - { offsetInCU: 0x8C27, offset: 0x8C27, size: 0x8, addend: 0x0, symName: __ZNKSt3__113basic_ostreamIcNS_11char_traitsIcEEE6sentrycvbB8ue170006Ev, symObjAddr: 0xB50, symBinAddr: 0x100001D20, symSize: 0x20 }
  - { offsetInCU: 0x8C4D, offset: 0x8C4D, size: 0x8, addend: 0x0, symName: __ZNSt3__119ostreambuf_iteratorIcNS_11char_traitsIcEEEC1B8ue170006ERNS_13basic_ostreamIcS2_EE, symObjAddr: 0xD90, symBinAddr: 0x100001F60, symSize: 0x30 }
  - { offsetInCU: 0x8C85, offset: 0x8C85, size: 0x8, addend: 0x0, symName: __ZNKSt3__18ios_base5flagsB8ue170006Ev, symObjAddr: 0xDC0, symBinAddr: 0x100001F90, symSize: 0x20 }
  - { offsetInCU: 0x8CAD, offset: 0x8CAD, size: 0x8, addend: 0x0, symName: __ZNKSt3__19basic_iosIcNS_11char_traitsIcEEE4fillB8ue170006Ev, symObjAddr: 0xDE0, symBinAddr: 0x100001FB0, symSize: 0x70 }
  - { offsetInCU: 0x8CD5, offset: 0x8CD5, size: 0x8, addend: 0x0, symName: __ZNKSt3__119ostreambuf_iteratorIcNS_11char_traitsIcEEE6failedB8ue170006Ev, symObjAddr: 0xE50, symBinAddr: 0x100002020, symSize: 0x20 }
  - { offsetInCU: 0x8CFB, offset: 0x8CFB, size: 0x8, addend: 0x0, symName: __ZNSt3__19basic_iosIcNS_11char_traitsIcEEE8setstateB8ue170006Ej, symObjAddr: 0xE70, symBinAddr: 0x100002040, symSize: 0x30 }
  - { offsetInCU: 0x8D30, offset: 0x8D30, size: 0x8, addend: 0x0, symName: __ZNKSt3__18ios_base5widthB8ue170006Ev, symObjAddr: 0xEA0, symBinAddr: 0x100002070, symSize: 0x20 }
  - { offsetInCU: 0x8D58, offset: 0x8D58, size: 0x8, addend: 0x0, symName: __ZNSt3__115basic_streambufIcNS_11char_traitsIcEEE5sputnB8ue170006EPKcl, symObjAddr: 0xEC0, symBinAddr: 0x100002090, symSize: 0x30 }
  - { offsetInCU: 0x8D9A, offset: 0x8D9A, size: 0x8, addend: 0x0, symName: __ZNSt3__112basic_stringIcNS_11char_traitsIcEENS_9allocatorIcEEEC1B8ue170006Emc, symObjAddr: 0xEF0, symBinAddr: 0x1000020C0, symSize: 0x30 }
  - { offsetInCU: 0x8DE2, offset: 0x8DE2, size: 0x8, addend: 0x0, symName: __ZNKSt3__112basic_stringIcNS_11char_traitsIcEENS_9allocatorIcEEE4dataB8ue170006Ev, symObjAddr: 0xF20, symBinAddr: 0x1000020F0, symSize: 0x30 }
  - { offsetInCU: 0x8E08, offset: 0x8E08, size: 0x8, addend: 0x0, symName: __ZNSt3__18ios_base5widthB8ue170006El, symObjAddr: 0xF50, symBinAddr: 0x100002120, symSize: 0x30 }
  - { offsetInCU: 0x8E4E, offset: 0x8E4E, size: 0x8, addend: 0x0, symName: __ZNSt3__112basic_stringIcNS_11char_traitsIcEENS_9allocatorIcEEEC2B8ue170006Emc, symObjAddr: 0xF80, symBinAddr: 0x100002150, symSize: 0x50 }
  - { offsetInCU: 0x8E96, offset: 0x8E96, size: 0x8, addend: 0x0, symName: __ZNKSt3__112basic_stringIcNS_11char_traitsIcEENS_9allocatorIcEEE13__get_pointerB8ue170006Ev, symObjAddr: 0xFE0, symBinAddr: 0x1000021B0, symSize: 0x50 }
  - { offsetInCU: 0x8EBC, offset: 0x8EBC, size: 0x8, addend: 0x0, symName: __ZNKSt3__112basic_stringIcNS_11char_traitsIcEENS_9allocatorIcEEE9__is_longB8ue170006Ev, symObjAddr: 0x1030, symBinAddr: 0x100002200, symSize: 0x30 }
  - { offsetInCU: 0x8EE2, offset: 0x8EE2, size: 0x8, addend: 0x0, symName: __ZNKSt3__112basic_stringIcNS_11char_traitsIcEENS_9allocatorIcEEE18__get_long_pointerB8ue170006Ev, symObjAddr: 0x1060, symBinAddr: 0x100002230, symSize: 0x20 }
  - { offsetInCU: 0x8F08, offset: 0x8F08, size: 0x8, addend: 0x0, symName: __ZNKSt3__112basic_stringIcNS_11char_traitsIcEENS_9allocatorIcEEE19__get_short_pointerB8ue170006Ev, symObjAddr: 0x1080, symBinAddr: 0x100002250, symSize: 0x30 }
  - { offsetInCU: 0x8F2E, offset: 0x8F2E, size: 0x8, addend: 0x0, symName: __ZNKSt3__117__compressed_pairINS_12basic_stringIcNS_11char_traitsIcEENS_9allocatorIcEEE5__repES5_E5firstB8ue170006Ev, symObjAddr: 0x10B0, symBinAddr: 0x100002280, symSize: 0x20 }
  - { offsetInCU: 0x8F54, offset: 0x8F54, size: 0x8, addend: 0x0, symName: __ZNKSt3__122__compressed_pair_elemINS_12basic_stringIcNS_11char_traitsIcEENS_9allocatorIcEEE5__repELi0ELb0EE5__getB8ue170006Ev, symObjAddr: 0x10D0, symBinAddr: 0x1000022A0, symSize: 0x10 }
  - { offsetInCU: 0x8F7A, offset: 0x8F7A, size: 0x8, addend: 0x0, symName: __ZNSt3__114pointer_traitsIPKcE10pointer_toB8ue170006ERS1_, symObjAddr: 0x10E0, symBinAddr: 0x1000022B0, symSize: 0x10 }
  - { offsetInCU: 0x8F9D, offset: 0x8F9D, size: 0x8, addend: 0x0, symName: __ZNSt3__119ostreambuf_iteratorIcNS_11char_traitsIcEEEC2B8ue170006ERNS_13basic_ostreamIcS2_EE, symObjAddr: 0x10F0, symBinAddr: 0x1000022C0, symSize: 0x50 }
  - { offsetInCU: 0x8FD5, offset: 0x8FD5, size: 0x8, addend: 0x0, symName: __ZNKSt3__19basic_iosIcNS_11char_traitsIcEEE5rdbufB8ue170006Ev, symObjAddr: 0x1140, symBinAddr: 0x100002310, symSize: 0x20 }
  - { offsetInCU: 0x8FFD, offset: 0x8FFD, size: 0x8, addend: 0x0, symName: __ZNKSt3__18ios_base5rdbufB8ue170006Ev, symObjAddr: 0x1160, symBinAddr: 0x100002330, symSize: 0x20 }
  - { offsetInCU: 0x9023, offset: 0x9023, size: 0x8, addend: 0x0, symName: __ZNSt3__111char_traitsIcE11eq_int_typeB8ue170006Eii, symObjAddr: 0x1180, symBinAddr: 0x100002350, symSize: 0x20 }
  - { offsetInCU: 0x9056, offset: 0x9056, size: 0x8, addend: 0x0, symName: __ZNSt3__111char_traitsIcE3eofB8ue170006Ev, symObjAddr: 0x11A0, symBinAddr: 0x100002370, symSize: 0x10 }
  - { offsetInCU: 0x906A, offset: 0x906A, size: 0x8, addend: 0x0, symName: __ZNKSt3__19basic_iosIcNS_11char_traitsIcEEE5widenB8ue170006Ec, symObjAddr: 0x11B0, symBinAddr: 0x100002380, symSize: 0x80 }
  - { offsetInCU: 0x90D8, offset: 0x90D8, size: 0x8, addend: 0x0, symName: __ZNKSt3__15ctypeIcE5widenB8ue170006Ec, symObjAddr: 0x1260, symBinAddr: 0x100002430, symSize: 0x30 }
  - { offsetInCU: 0x910D, offset: 0x910D, size: 0x8, addend: 0x0, symName: __ZNSt3__18ios_base8setstateB8ue170006Ej, symObjAddr: 0x1290, symBinAddr: 0x100002460, symSize: 0x30 }
  - { offsetInCU: 0x91D6, offset: 0x91D6, size: 0x8, addend: 0x0, symName: __ZNKSt3__113basic_istreamIcNS_11char_traitsIcEEE6sentrycvbB8ue170006Ev, symObjAddr: 0x1500, symBinAddr: 0x1000026D0, symSize: 0x20 }
  - { offsetInCU: 0x91FC, offset: 0x91FC, size: 0x8, addend: 0x0, symName: __ZNSt3__112basic_stringIcNS_11char_traitsIcEENS_9allocatorIcEEE5clearB8ue170006Ev, symObjAddr: 0x1520, symBinAddr: 0x1000026F0, symSize: 0x80 }
  - { offsetInCU: 0x9224, offset: 0x9224, size: 0x8, addend: 0x0, symName: __ZNSt3__115basic_streambufIcNS_11char_traitsIcEEE6sbumpcB8ue170006Ev, symObjAddr: 0x15A0, symBinAddr: 0x100002770, symSize: 0x60 }
  - { offsetInCU: 0x924A, offset: 0x924A, size: 0x8, addend: 0x0, symName: __ZNSt3__111char_traitsIcE12to_char_typeB8ue170006Ei, symObjAddr: 0x1600, symBinAddr: 0x1000027D0, symSize: 0x10 }
  - { offsetInCU: 0x926D, offset: 0x926D, size: 0x8, addend: 0x0, symName: __ZNSt3__111char_traitsIcE2eqEcc, symObjAddr: 0x1610, symBinAddr: 0x1000027E0, symSize: 0x30 }
  - { offsetInCU: 0x929E, offset: 0x929E, size: 0x8, addend: 0x0, symName: __ZNKSt3__112basic_stringIcNS_11char_traitsIcEENS_9allocatorIcEEE4sizeB8ue170006Ev, symObjAddr: 0x1640, symBinAddr: 0x100002810, symSize: 0x50 }
  - { offsetInCU: 0x92C4, offset: 0x92C4, size: 0x8, addend: 0x0, symName: __ZNKSt3__112basic_stringIcNS_11char_traitsIcEENS_9allocatorIcEEE8max_sizeB8ue170006Ev, symObjAddr: 0x1690, symBinAddr: 0x100002860, symSize: 0xA0 }
  - { offsetInCU: 0x9316, offset: 0x9316, size: 0x8, addend: 0x0, symName: __ZNSt3__18ios_base18__setstate_nothrowB8ue170006Ej, symObjAddr: 0x1730, symBinAddr: 0x100002900, symSize: 0x50 }
  - { offsetInCU: 0x934B, offset: 0x934B, size: 0x8, addend: 0x0, symName: __ZNKSt3__19basic_iosIcNS_11char_traitsIcEEE10exceptionsB8ue170006Ev, symObjAddr: 0x1780, symBinAddr: 0x100002950, symSize: 0x20 }
  - { offsetInCU: 0x9371, offset: 0x9371, size: 0x8, addend: 0x0, symName: __ZNSt3__111char_traitsIcE6assignB8ue170006ERcRKc, symObjAddr: 0x17A0, symBinAddr: 0x100002970, symSize: 0x20 }
  - { offsetInCU: 0x93A2, offset: 0x93A2, size: 0x8, addend: 0x0, symName: __ZNSt3__112basic_stringIcNS_11char_traitsIcEENS_9allocatorIcEEE18__get_long_pointerB8ue170006Ev, symObjAddr: 0x17C0, symBinAddr: 0x100002990, symSize: 0x20 }
  - { offsetInCU: 0x93C8, offset: 0x93C8, size: 0x8, addend: 0x0, symName: __ZNSt3__112basic_stringIcNS_11char_traitsIcEENS_9allocatorIcEEE15__set_long_sizeB8ue170006Em, symObjAddr: 0x17E0, symBinAddr: 0x1000029B0, symSize: 0x30 }
  - { offsetInCU: 0x93FD, offset: 0x93FD, size: 0x8, addend: 0x0, symName: __ZNSt3__112basic_stringIcNS_11char_traitsIcEENS_9allocatorIcEEE19__get_short_pointerB8ue170006Ev, symObjAddr: 0x1810, symBinAddr: 0x1000029E0, symSize: 0x30 }
  - { offsetInCU: 0x9423, offset: 0x9423, size: 0x8, addend: 0x0, symName: __ZNSt3__112basic_stringIcNS_11char_traitsIcEENS_9allocatorIcEEE16__set_short_sizeB8ue170006Em, symObjAddr: 0x1840, symBinAddr: 0x100002A10, symSize: 0x50 }
  - { offsetInCU: 0x9458, offset: 0x9458, size: 0x8, addend: 0x0, symName: __ZNSt3__114pointer_traitsIPcE10pointer_toB8ue170006ERc, symObjAddr: 0x1890, symBinAddr: 0x100002A60, symSize: 0x10 }
  - { offsetInCU: 0x947B, offset: 0x947B, size: 0x8, addend: 0x0, symName: __ZNSt3__111char_traitsIcE11to_int_typeB8ue170006Ec, symObjAddr: 0x18A0, symBinAddr: 0x100002A70, symSize: 0x10 }
  - { offsetInCU: 0x949F, offset: 0x949F, size: 0x8, addend: 0x0, symName: __ZNKSt3__112basic_stringIcNS_11char_traitsIcEENS_9allocatorIcEEE15__get_long_sizeB8ue170006Ev, symObjAddr: 0x18B0, symBinAddr: 0x100002A80, symSize: 0x20 }
  - { offsetInCU: 0x94C5, offset: 0x94C5, size: 0x8, addend: 0x0, symName: __ZNKSt3__112basic_stringIcNS_11char_traitsIcEENS_9allocatorIcEEE16__get_short_sizeB8ue170006Ev, symObjAddr: 0x18D0, symBinAddr: 0x100002AA0, symSize: 0x30 }
  - { offsetInCU: 0x94F5, offset: 0x94F5, size: 0x8, addend: 0x0, symName: __ZNSt3__116allocator_traitsINS_9allocatorIcEEE8max_sizeB8ue170006IS2_vEEmRKS2_, symObjAddr: 0x1900, symBinAddr: 0x100002AD0, symSize: 0x20 }
  - { offsetInCU: 0x9523, offset: 0x9523, size: 0x8, addend: 0x0, symName: __ZNKSt3__112basic_stringIcNS_11char_traitsIcEENS_9allocatorIcEEE7__allocB8ue170006Ev, symObjAddr: 0x1920, symBinAddr: 0x100002AF0, symSize: 0x20 }
  - { offsetInCU: 0x9549, offset: 0x9549, size: 0x8, addend: 0x0, symName: __ZNSt3__114numeric_limitsImE3maxB8ue170006Ev, symObjAddr: 0x1940, symBinAddr: 0x100002B10, symSize: 0x10 }
  - { offsetInCU: 0x955D, offset: 0x955D, size: 0x8, addend: 0x0, symName: __ZNKSt3__19allocatorIcE8max_sizeB8ue170006Ev, symObjAddr: 0x1950, symBinAddr: 0x100002B20, symSize: 0x20 }
  - { offsetInCU: 0x9583, offset: 0x9583, size: 0x8, addend: 0x0, symName: __ZNKSt3__117__compressed_pairINS_12basic_stringIcNS_11char_traitsIcEENS_9allocatorIcEEE5__repES5_E6secondB8ue170006Ev, symObjAddr: 0x1970, symBinAddr: 0x100002B40, symSize: 0x20 }
  - { offsetInCU: 0x95A9, offset: 0x95A9, size: 0x8, addend: 0x0, symName: __ZNKSt3__122__compressed_pair_elemINS_9allocatorIcEELi1ELb1EE5__getB8ue170006Ev, symObjAddr: 0x1990, symBinAddr: 0x100002B60, symSize: 0x10 }
  - { offsetInCU: 0x95CF, offset: 0x95CF, size: 0x8, addend: 0x0, symName: __ZNSt3__123__libcpp_numeric_limitsImLb1EE3maxB8ue170006Ev, symObjAddr: 0x19A0, symBinAddr: 0x100002B70, symSize: 0x10 }
  - { offsetInCU: 0x95E3, offset: 0x95E3, size: 0x8, addend: 0x0, symName: __ZNKSt3__18ios_base10exceptionsB8ue170006Ev, symObjAddr: 0x19B0, symBinAddr: 0x100002B80, symSize: 0x20 }
  - { offsetInCU: 0x961F, offset: 0x961F, size: 0x8, addend: 0x0, symName: __ZNKSt3__16__lessIvvEclB8ue170006ImmEEbRKT_RKT0_, symObjAddr: 0x1BB0, symBinAddr: 0x100002D80, symSize: 0x30 }
  - { offsetInCU: 0x9673, offset: 0x9673, size: 0x8, addend: 0x0, symName: __ZNSt3__18_IterOpsINS_17_ClassicAlgPolicyEE4nextB8ue170006IPKcEET_S6_S6_, symObjAddr: 0x1DC0, symBinAddr: 0x100002F90, symSize: 0x20 }
  - { offsetInCU: 0x96C7, offset: 0x96C7, size: 0x8, addend: 0x0, symName: __ZNSt3__14pairIPKcS2_EC1B8ue170006IRS2_S5_LPv0EEEOT_OT0_, symObjAddr: 0x1DE0, symBinAddr: 0x100002FB0, symSize: 0x30 }
  - { offsetInCU: 0x9725, offset: 0x9725, size: 0x8, addend: 0x0, symName: __ZNSt3__14pairIPKcS2_EC2B8ue170006IRS2_S5_LPv0EEEOT_OT0_, symObjAddr: 0x1E80, symBinAddr: 0x100003050, symSize: 0x30 }
  - { offsetInCU: 0x978D, offset: 0x978D, size: 0x8, addend: 0x0, symName: __ZNKSt3__110__identityclB8ue170006IRKcEEOT_S5_, symObjAddr: 0x1EB0, symBinAddr: 0x100003080, symSize: 0x12 }
  - { offsetInCU: 0x39, offset: 0x989A, size: 0x8, addend: 0x0, symName: __ZN14ConsoleManager14sharedInstanceE, symObjAddr: 0x5CEA8, symBinAddr: 0x100019000, symSize: 0x0 }
  - { offsetInCU: 0x3D3B, offset: 0xD59C, size: 0x8, addend: 0x0, symName: __ZNSt3__16chronogtB8ue170006IxNS_5ratioILl1ELl1000EEExS3_EEbRKNS0_8durationIT_T0_EERKNS4_IT1_T2_EE, symObjAddr: 0x70B0, symBinAddr: 0x100008CB0, symSize: 0x30 }
  - { offsetInCU: 0x3D9C, offset: 0xD5FD, size: 0x8, addend: 0x0, symName: __ZNSt3__16chronoltB8ue170006IxNS_5ratioILl1ELl1000EEEeNS2_ILl1ELl1EEEEEbRKNS0_8durationIT_T0_EERKNS5_IT1_T2_EE, symObjAddr: 0x7120, symBinAddr: 0x100008D20, symSize: 0x30 }
  - { offsetInCU: 0x3DFD, offset: 0xD65E, size: 0x8, addend: 0x0, symName: __ZNSt3__16chrono13duration_castB8ue170006INS0_8durationIxNS_5ratioILl1ELl1000000000EEEEExNS3_ILl1ELl1000EEEEENS_9enable_ifIXsr13__is_durationIT_EE5valueES8_E4typeERKNS2_IT0_T1_EE, symObjAddr: 0x7150, symBinAddr: 0x100008D50, symSize: 0x30 }
  - { offsetInCU: 0x3E44, offset: 0xD6A5, size: 0x8, addend: 0x0, symName: __ZNSt3__16chronoltB8ue170006IxNS_5ratioILl1ELl1000000000EEExNS2_ILl1ELl1000EEEEEbRKNS0_8durationIT_T0_EERKNS5_IT1_T2_EE, symObjAddr: 0x7180, symBinAddr: 0x100008D80, symSize: 0x30 }
  - { offsetInCU: 0x3EA5, offset: 0xD706, size: 0x8, addend: 0x0, symName: __ZNSt3__16chronoltB8ue170006IxNS_5ratioILl1ELl1000EEExS3_EEbRKNS0_8durationIT_T0_EERKNS4_IT1_T2_EE, symObjAddr: 0x7210, symBinAddr: 0x100008E10, symSize: 0x30 }
  - { offsetInCU: 0x3F83, offset: 0xD7E4, size: 0x8, addend: 0x0, symName: __ZNSt3__16chrono13duration_castB8ue170006INS0_8durationIeNS_5ratioILl1ELl1000EEEEExS4_EENS_9enable_ifIXsr13__is_durationIT_EE5valueES7_E4typeERKNS2_IT0_T1_EE, symObjAddr: 0x7430, symBinAddr: 0x100009030, symSize: 0x30 }
  - { offsetInCU: 0x4015, offset: 0xD876, size: 0x8, addend: 0x0, symName: __ZNSt3__16chrono13duration_castB8ue170006INS0_8durationIeNS_5ratioILl1ELl1000EEEEEeNS3_ILl1ELl1EEEEENS_9enable_ifIXsr13__is_durationIT_EE5valueES8_E4typeERKNS2_IT0_T1_EE, symObjAddr: 0x7530, symBinAddr: 0x100009130, symSize: 0x30 }
  - { offsetInCU: 0x9B76, offset: 0x133D7, size: 0x8, addend: 0x0, symName: __ZNSt3__1rsB8ue170006IcNS_11char_traitsIcEENS_9allocatorIcEEEERNS_13basic_istreamIT_T0_EES9_RNS_12basic_stringIS6_S7_T1_EE, symObjAddr: 0x1050, symBinAddr: 0x100003FD0, symSize: 0x2D0 }
  - { offsetInCU: 0x9C45, offset: 0x134A6, size: 0x8, addend: 0x0, symName: __ZNSt3__12wsB8ue170006IcNS_11char_traitsIcEEEERNS_13basic_istreamIT_T0_EES7_, symObjAddr: 0x1340, symBinAddr: 0x1000042C0, symSize: 0x230 }
  - { offsetInCU: 0x9CD8, offset: 0x13539, size: 0x8, addend: 0x0, symName: __ZNSt3__1neB8ue170006IcNS_11char_traitsIcEENS_9allocatorIcEEEEbRKNS_12basic_stringIT_T0_T1_EEPKS6_, symObjAddr: 0x17A0, symBinAddr: 0x100004720, symSize: 0x30 }
  - { offsetInCU: 0x9D3B, offset: 0x1359C, size: 0x8, addend: 0x0, symName: __ZNSt3__1plB8ue170006IcNS_11char_traitsIcEENS_9allocatorIcEEEENS_12basic_stringIT_T0_T1_EEPKS6_OS9_, symObjAddr: 0x2170, symBinAddr: 0x100005060, symSize: 0x50 }
  - { offsetInCU: 0x9D98, offset: 0x135F9, size: 0x8, addend: 0x0, symName: __ZNSt3__111this_thread9sleep_forB8ue170006IxNS_5ratioILl1ELl1000EEEEEvRKNS_6chrono8durationIT_T0_EE, symObjAddr: 0x21E0, symBinAddr: 0x1000050D0, symSize: 0xD0 }
  - { offsetInCU: 0x9E1B, offset: 0x1367C, size: 0x8, addend: 0x0, symName: __ZNSt3__122__libcpp_thread_isnullB8ue170006EPKP17_opaque_pthread_t, symObjAddr: 0x2620, symBinAddr: 0x100005510, symSize: 0x30 }
  - { offsetInCU: 0x9E49, offset: 0x136AA, size: 0x8, addend: 0x0, symName: __ZNSt3__122__libcpp_thread_get_idB8ue170006EPKP17_opaque_pthread_t, symObjAddr: 0x2660, symBinAddr: 0x100005540, symSize: 0x20 }
  - { offsetInCU: 0x9E78, offset: 0x136D9, size: 0x8, addend: 0x0, symName: __ZNSt3__119__libcpp_deallocateB8ue170006EPvmm, symObjAddr: 0x2C70, symBinAddr: 0x1000058A0, symSize: 0x30 }
  - { offsetInCU: 0x9EC1, offset: 0x13722, size: 0x8, addend: 0x0, symName: __ZNSt3__127__do_deallocate_handle_sizeB8ue170006IJEEEvPvmDpT_, symObjAddr: 0x2CA0, symBinAddr: 0x1000058D0, symSize: 0x20 }
  - { offsetInCU: 0x9F01, offset: 0x13762, size: 0x8, addend: 0x0, symName: __ZNSt3__124__libcpp_operator_deleteB8ue170006IJPvEEEvDpT_, symObjAddr: 0x2CC0, symBinAddr: 0x1000058F0, symSize: 0x20 }
  - { offsetInCU: 0xA355, offset: 0x13BB6, size: 0x8, addend: 0x0, symName: __ZNSt3__122__libcpp_thread_createB8ue170006EPP17_opaque_pthread_tPFPvS3_ES3_, symObjAddr: 0x2F20, symBinAddr: 0x100005B40, symSize: 0x30 }
  - { offsetInCU: 0xA3A2, offset: 0x13C03, size: 0x8, addend: 0x0, symName: '__ZNSt3__114__thread_proxyB8ue170006INS_5tupleIJNS_10unique_ptrINS_15__thread_structENS_14default_deleteIS3_EEEEZN14ConsoleManager13startCPUCycleEvE3$_0EEEEEPvSA_', symObjAddr: 0x2F50, symBinAddr: 0x100005B70, symSize: 0xA0 }
  - { offsetInCU: 0xA503, offset: 0x13D64, size: 0x8, addend: 0x0, symName: '__ZNSt3__13getB8ue170006ILm0EJNS_10unique_ptrINS_15__thread_structENS_14default_deleteIS2_EEEEZN14ConsoleManager13startCPUCycleEvE3$_0EEERNS_13tuple_elementIXT_ENS_5tupleIJDpT0_EEEE4typeERSC_', symObjAddr: 0x3560, symBinAddr: 0x100006180, symSize: 0x20 }
  - { offsetInCU: 0xA54C, offset: 0x13DAD, size: 0x8, addend: 0x0, symName: '__ZNSt3__116__thread_executeB8ue170006INS_10unique_ptrINS_15__thread_structENS_14default_deleteIS2_EEEEZN14ConsoleManager13startCPUCycleEvE3$_0JEJEEEvRNS_5tupleIJT_T0_DpT1_EEENS_15__tuple_indicesIJXspT2_EEEE', symObjAddr: 0x3580, symBinAddr: 0x1000061A0, symSize: 0x30 }
  - { offsetInCU: 0xA59C, offset: 0x13DFD, size: 0x8, addend: 0x0, symName: __ZNSt3__116__libcpp_tls_setB8ue170006EmPv, symObjAddr: 0x35B0, symBinAddr: 0x1000061D0, symSize: 0x30 }
  - { offsetInCU: 0xA5DA, offset: 0x13E3B, size: 0x8, addend: 0x0, symName: '__ZNSt3__18__invokeB8ue170006IZN14ConsoleManager13startCPUCycleEvE3$_0JEEEDTclclsr3stdE7declvalIT_EEspclsr3stdE7declvalIT0_EEEEOS3_DpOS4_', symObjAddr: 0x35F0, symBinAddr: 0x100006210, symSize: 0x20 }
  - { offsetInCU: 0xA614, offset: 0x13E75, size: 0x8, addend: 0x0, symName: '__ZNSt3__13getB8ue170006ILm1EJNS_10unique_ptrINS_15__thread_structENS_14default_deleteIS2_EEEEZN14ConsoleManager13startCPUCycleEvE3$_0EEERNS_13tuple_elementIXT_ENS_5tupleIJDpT0_EEEE4typeERSC_', symObjAddr: 0x3610, symBinAddr: 0x100006230, symSize: 0x20 }
  - { offsetInCU: 0xA65C, offset: 0x13EBD, size: 0x8, addend: 0x0, symName: __ZNSt3__112__to_addressB8ue170006INS_12basic_stringIcNS_11char_traitsIcEENS_9allocatorIcEEEEEEPT_S8_, symObjAddr: 0x4700, symBinAddr: 0x1000069D0, symSize: 0x10 }
  - { offsetInCU: 0xA892, offset: 0x140F3, size: 0x8, addend: 0x0, symName: __ZNSt3__13maxB8ue170006ImEERKT_S3_S3_, symObjAddr: 0x5880, symBinAddr: 0x100007530, symSize: 0x30 }
  - { offsetInCU: 0xA8D6, offset: 0x14137, size: 0x8, addend: 0x0, symName: __ZNSt3__120__throw_length_errorB8ue170006EPKc, symObjAddr: 0x59F0, symBinAddr: 0x1000075F0, symSize: 0x70 }
  - { offsetInCU: 0xA900, offset: 0x14161, size: 0x8, addend: 0x0, symName: __ZNSt3__13maxB8ue170006ImNS_6__lessIvvEEEERKT_S5_S5_T0_, symObjAddr: 0x5AD0, symBinAddr: 0x1000076D0, symSize: 0x50 }
  - { offsetInCU: 0xA95A, offset: 0x141BB, size: 0x8, addend: 0x0, symName: __ZNSt3__119__allocate_at_leastB8ue170006INS_9allocatorINS_12basic_stringIcNS_11char_traitsIcEENS1_IcEEEEEEEENS_19__allocation_resultINS_16allocator_traitsIT_E7pointerEEERSA_m, symObjAddr: 0x5C10, symBinAddr: 0x100007810, symSize: 0x40 }
  - { offsetInCU: 0xA99D, offset: 0x141FE, size: 0x8, addend: 0x0, symName: __ZNSt3__117__libcpp_allocateB8ue170006Emm, symObjAddr: 0x5D80, symBinAddr: 0x100007980, symSize: 0x20 }
  - { offsetInCU: 0xA9DA, offset: 0x1423B, size: 0x8, addend: 0x0, symName: __ZNSt3__121__libcpp_operator_newB8ue170006IJmEEEPvDpT_, symObjAddr: 0x5DA0, symBinAddr: 0x1000079A0, symSize: 0x20 }
  - { offsetInCU: 0xAA13, offset: 0x14274, size: 0x8, addend: 0x0, symName: __ZNSt3__142__uninitialized_allocator_move_if_noexceptB8ue170006INS_9allocatorINS_12basic_stringIcNS_11char_traitsIcEENS1_IcEEEEEENS_16reverse_iteratorIPS6_EESA_SA_EET2_RT_T0_T1_SB_, symObjAddr: 0x5E20, symBinAddr: 0x100007A20, symSize: 0x180 }
  - { offsetInCU: 0xAAB2, offset: 0x14313, size: 0x8, addend: 0x0, symName: __ZNSt3__14swapB8ue170006IPNS_12basic_stringIcNS_11char_traitsIcEENS_9allocatorIcEEEEEENS_9enable_ifIXaasr21is_move_constructibleIT_EE5valuesr18is_move_assignableIS9_EE5valueEvE4typeERS9_SC_, symObjAddr: 0x5FF0, symBinAddr: 0x100007BF0, symSize: 0x40 }
  - { offsetInCU: 0xAB03, offset: 0x14364, size: 0x8, addend: 0x0, symName: __ZNSt3__122__make_exception_guardB8ue170006INS_29_AllocatorDestroyRangeReverseINS_9allocatorINS_12basic_stringIcNS_11char_traitsIcEENS2_IcEEEEEENS_16reverse_iteratorIPS7_EEEEEENS_28__exception_guard_exceptionsIT_EESE_, symObjAddr: 0x60D0, symBinAddr: 0x100007CD0, symSize: 0x60 }
  - { offsetInCU: 0xAB38, offset: 0x14399, size: 0x8, addend: 0x0, symName: __ZNSt3__1neB8ue170006IPNS_12basic_stringIcNS_11char_traitsIcEENS_9allocatorIcEEEES7_EEbRKNS_16reverse_iteratorIT_EERKNS8_IT0_EE, symObjAddr: 0x6170, symBinAddr: 0x100007D70, symSize: 0x40 }
  - { offsetInCU: 0xAB84, offset: 0x143E5, size: 0x8, addend: 0x0, symName: __ZNSt3__112__to_addressB8ue170006INS_16reverse_iteratorIPNS_12basic_stringIcNS_11char_traitsIcEENS_9allocatorIcEEEEEEvEEu7__decayIDTclsr19__to_address_helperIT_EE6__callclsr3stdE7declvalIRKSA_EEEEESC_, symObjAddr: 0x61E0, symBinAddr: 0x100007DE0, symSize: 0x20 }
  - { offsetInCU: 0xABE5, offset: 0x14446, size: 0x8, addend: 0x0, symName: __ZNSt3__119__allocator_destroyB8ue170006INS_9allocatorINS_12basic_stringIcNS_11char_traitsIcEENS1_IcEEEEEENS_16reverse_iteratorINS8_IPS6_EEEESB_EEvRT_T0_T1_, symObjAddr: 0x6570, symBinAddr: 0x100008170, symSize: 0x70 }
  - { offsetInCU: 0xAC48, offset: 0x144A9, size: 0x8, addend: 0x0, symName: __ZNSt3__1neB8ue170006INS_16reverse_iteratorIPNS_12basic_stringIcNS_11char_traitsIcEENS_9allocatorIcEEEEEES9_EEbRKNS1_IT_EERKNS1_IT0_EE, symObjAddr: 0x6610, symBinAddr: 0x100008210, symSize: 0x50 }
  - { offsetInCU: 0xAC94, offset: 0x144F5, size: 0x8, addend: 0x0, symName: __ZNSt3__112__to_addressB8ue170006INS_16reverse_iteratorINS1_IPNS_12basic_stringIcNS_11char_traitsIcEENS_9allocatorIcEEEEEEEEvEEu7__decayIDTclsr19__to_address_helperIT_EE6__callclsr3stdE7declvalIRKSB_EEEEESD_, symObjAddr: 0x6660, symBinAddr: 0x100008260, symSize: 0x20 }
  - { offsetInCU: 0xB114, offset: 0x14975, size: 0x8, addend: 0x0, symName: '__ZNSt3__114__thread_proxyB8ue170006INS_5tupleIJNS_10unique_ptrINS_15__thread_structENS_14default_deleteIS3_EEEEZN14ConsoleManager10initializeEvE3$_1EEEEEPvSA_', symObjAddr: 0x6B60, symBinAddr: 0x100008760, symSize: 0xA0 }
  - { offsetInCU: 0xB172, offset: 0x149D3, size: 0x8, addend: 0x0, symName: '__ZNSt3__13getB8ue170006ILm0EJNS_10unique_ptrINS_15__thread_structENS_14default_deleteIS2_EEEEZN14ConsoleManager10initializeEvE3$_1EEERNS_13tuple_elementIXT_ENS_5tupleIJDpT0_EEEE4typeERSC_', symObjAddr: 0x6E10, symBinAddr: 0x100008A10, symSize: 0x20 }
  - { offsetInCU: 0xB1BB, offset: 0x14A1C, size: 0x8, addend: 0x0, symName: '__ZNSt3__116__thread_executeB8ue170006INS_10unique_ptrINS_15__thread_structENS_14default_deleteIS2_EEEEZN14ConsoleManager10initializeEvE3$_1JEJEEEvRNS_5tupleIJT_T0_DpT1_EEENS_15__tuple_indicesIJXspT2_EEEE', symObjAddr: 0x6E30, symBinAddr: 0x100008A30, symSize: 0x30 }
  - { offsetInCU: 0xB20C, offset: 0x14A6D, size: 0x8, addend: 0x0, symName: '__ZNSt3__18__invokeB8ue170006IZN14ConsoleManager10initializeEvE3$_1JEEEDTclclsr3stdE7declvalIT_EEspclsr3stdE7declvalIT0_EEEEOS3_DpOS4_', symObjAddr: 0x6E60, symBinAddr: 0x100008A60, symSize: 0x20 }
  - { offsetInCU: 0xB246, offset: 0x14AA7, size: 0x8, addend: 0x0, symName: '__ZNSt3__13getB8ue170006ILm1EJNS_10unique_ptrINS_15__thread_structENS_14default_deleteIS2_EEEEZN14ConsoleManager10initializeEvE3$_1EEERNS_13tuple_elementIXT_ENS_5tupleIJDpT0_EEEE4typeERSC_', symObjAddr: 0x6E80, symBinAddr: 0x100008A80, symSize: 0x20 }
  - { offsetInCU: 0xB88C, offset: 0x150ED, size: 0x8, addend: 0x0, symName: __ZNSt3__114__thread_proxyB8ue170006INS_5tupleIJNS_10unique_ptrINS_15__thread_structENS_14default_deleteIS3_EEEEM14ConsoleManagerFvxEPS7_iEEEEEPvSC_, symObjAddr: 0x7980, symBinAddr: 0x100009580, symSize: 0xA0 }
  - { offsetInCU: 0xB8F3, offset: 0x15154, size: 0x8, addend: 0x0, symName: __ZNSt3__13getB8ue170006ILm0EJNS_10unique_ptrINS_15__thread_structENS_14default_deleteIS2_EEEEM14ConsoleManagerFvxEPS6_iEEERNS_13tuple_elementIXT_ENS_5tupleIJDpT0_EEEE4typeERSE_, symObjAddr: 0x7CE0, symBinAddr: 0x1000098E0, symSize: 0x20 }
  - { offsetInCU: 0xB945, offset: 0x151A6, size: 0x8, addend: 0x0, symName: __ZNSt3__116__thread_executeB8ue170006INS_10unique_ptrINS_15__thread_structENS_14default_deleteIS2_EEEEM14ConsoleManagerFvxEJPS6_iEJLm2ELm3EEEEvRNS_5tupleIJT_T0_DpT1_EEENS_15__tuple_indicesIJXspT2_EEEE, symObjAddr: 0x7D00, symBinAddr: 0x100009900, symSize: 0x50 }
  - { offsetInCU: 0xB9AD, offset: 0x1520E, size: 0x8, addend: 0x0, symName: __ZNSt3__18__invokeB8ue170006IM14ConsoleManagerFvxEPS1_JiEvEEDTcldsdeclsr3stdE7declvalIT0_EEclsr3stdE7declvalIT_EEspclsr3stdE7declvalIT1_EEEEOS6_OS5_DpOS7_, symObjAddr: 0x7D50, symBinAddr: 0x100009950, symSize: 0x80 }
  - { offsetInCU: 0xBA13, offset: 0x15274, size: 0x8, addend: 0x0, symName: __ZNSt3__13getB8ue170006ILm1EJNS_10unique_ptrINS_15__thread_structENS_14default_deleteIS2_EEEEM14ConsoleManagerFvxEPS6_iEEERNS_13tuple_elementIXT_ENS_5tupleIJDpT0_EEEE4typeERSE_, symObjAddr: 0x7DD0, symBinAddr: 0x1000099D0, symSize: 0x20 }
  - { offsetInCU: 0xBA65, offset: 0x152C6, size: 0x8, addend: 0x0, symName: __ZNSt3__13getB8ue170006ILm2EJNS_10unique_ptrINS_15__thread_structENS_14default_deleteIS2_EEEEM14ConsoleManagerFvxEPS6_iEEERNS_13tuple_elementIXT_ENS_5tupleIJDpT0_EEEE4typeERSE_, symObjAddr: 0x7DF0, symBinAddr: 0x1000099F0, symSize: 0x20 }
  - { offsetInCU: 0xBAB7, offset: 0x15318, size: 0x8, addend: 0x0, symName: __ZNSt3__13getB8ue170006ILm3EJNS_10unique_ptrINS_15__thread_structENS_14default_deleteIS2_EEEEM14ConsoleManagerFvxEPS6_iEEERNS_13tuple_elementIXT_ENS_5tupleIJDpT0_EEEE4typeERSE_, symObjAddr: 0x7E10, symBinAddr: 0x100009A10, symSize: 0x20 }
  - { offsetInCU: 0xBD39, offset: 0x1559A, size: 0x8, addend: 0x0, symName: __ZSt28__throw_bad_array_new_lengthB8ue170006v, symObjAddr: 0x5D40, symBinAddr: 0x100007940, symSize: 0x40 }
  - { offsetInCU: 0xC2B0, offset: 0x15B11, size: 0x8, addend: 0x0, symName: __ZN14ConsoleManager13startCPUCycleEv, symObjAddr: 0x170, symBinAddr: 0x100003210, symSize: 0x50 }
  - { offsetInCU: 0xC5CD, offset: 0x15E2E, size: 0x8, addend: 0x0, symName: __ZNSt3__16vectorINS_12basic_stringIcNS_11char_traitsIcEENS_9allocatorIcEEEENS4_IS6_EEE26__swap_out_circular_bufferERNS_14__split_bufferIS6_RS7_EE, symObjAddr: 0x56C0, symBinAddr: 0x100007370, symSize: 0x120 }
  - { offsetInCU: 0xC665, offset: 0x15EC6, size: 0x8, addend: 0x0, symName: __ZN14ConsoleManager10initializeEv, symObjAddr: 0x5B0, symBinAddr: 0x1000035A0, symSize: 0x770 }
  - { offsetInCU: 0xC80D, offset: 0x1606E, size: 0x8, addend: 0x0, symName: __ZNKSt3__16chrono13__duration_ltINS0_8durationIxNS_5ratioILl1ELl1000EEEEENS2_IeNS3_ILl1ELl1EEEEEEclB8ue170006ERKS5_RKS7_, symObjAddr: 0x7310, symBinAddr: 0x100008F10, symSize: 0x70 }
  - { offsetInCU: 0xC88A, offset: 0x160EB, size: 0x8, addend: 0x0, symName: __ZNKSt3__16chrono15__duration_castINS0_8durationIeNS_5ratioILl1ELl1EEEEENS2_IeNS3_ILl1ELl1000EEEEENS3_ILl1000ELl1EEELb0ELb1EEclB8ue170006ERKS5_, symObjAddr: 0x7560, symBinAddr: 0x100009160, symSize: 0x40 }
  - { offsetInCU: 0xC8D3, offset: 0x16134, size: 0x8, addend: 0x0, symName: __ZNKSt3__16chrono15__duration_castINS0_8durationIxNS_5ratioILl1ELl1000EEEEENS2_IxNS3_ILl1ELl1000000000EEEEENS3_ILl1000000ELl1EEELb0ELb1EEclB8ue170006ERKS5_, symObjAddr: 0x75B0, symBinAddr: 0x1000091B0, symSize: 0x40 }
  - { offsetInCU: 0xC91C, offset: 0x1617D, size: 0x8, addend: 0x0, symName: __ZNKSt3__16chrono13__duration_ltINS0_8durationIxNS_5ratioILl1ELl1000000000EEEEENS2_IxNS3_ILl1ELl1000EEEEEEclB8ue170006ERKS5_RKS7_, symObjAddr: 0x7640, symBinAddr: 0x100009240, symSize: 0x60 }
  - { offsetInCU: 0xE7C0, offset: 0x18021, size: 0x8, addend: 0x0, symName: __ZN14ConsoleManagerC2Ev, symObjAddr: 0x0, symBinAddr: 0x1000030A0, symSize: 0x50 }
  - { offsetInCU: 0xE7EC, offset: 0x1804D, size: 0x8, addend: 0x0, symName: __ZNSt3__16threadC1B8ue170006Ev, symObjAddr: 0x50, symBinAddr: 0x1000030F0, symSize: 0x20 }
  - { offsetInCU: 0xE816, offset: 0x18077, size: 0x8, addend: 0x0, symName: __ZNSt3__15mutexC1B8ue170006Ev, symObjAddr: 0x70, symBinAddr: 0x100003110, symSize: 0x20 }
  - { offsetInCU: 0xE840, offset: 0x180A1, size: 0x8, addend: 0x0, symName: __ZN14ConsoleManagerC1Ev, symObjAddr: 0x90, symBinAddr: 0x100003130, symSize: 0x20 }
  - { offsetInCU: 0xE86C, offset: 0x180CD, size: 0x8, addend: 0x0, symName: __ZN14ConsoleManagerC2ERKS_, symObjAddr: 0xB0, symBinAddr: 0x100003150, symSize: 0x50 }
  - { offsetInCU: 0xE8A2, offset: 0x18103, size: 0x8, addend: 0x0, symName: __ZN14ConsoleManagerC1ERKS_, symObjAddr: 0x100, symBinAddr: 0x1000031A0, symSize: 0x30 }
  - { offsetInCU: 0xE8D8, offset: 0x18139, size: 0x8, addend: 0x0, symName: __ZN14ConsoleManager17initializeConsoleEv, symObjAddr: 0x130, symBinAddr: 0x1000031D0, symSize: 0x30 }
  - { offsetInCU: 0xE8EE, offset: 0x1814F, size: 0x8, addend: 0x0, symName: __ZN14ConsoleManager11getInstanceEv, symObjAddr: 0x160, symBinAddr: 0x100003200, symSize: 0x10 }
  - { offsetInCU: 0xE909, offset: 0x1816A, size: 0x8, addend: 0x0, symName: '__ZNSt3__16threadC1IZN14ConsoleManager13startCPUCycleEvE3$_0JEvEEOT_DpOT0_', symObjAddr: 0x1C0, symBinAddr: 0x100003260, symSize: 0x30 }
  - { offsetInCU: 0xE951, offset: 0x181B2, size: 0x8, addend: 0x0, symName: __ZNSt3__16threadaSB8ue170006EOS0_, symObjAddr: 0x1F0, symBinAddr: 0x100003290, symSize: 0x70 }
  - { offsetInCU: 0xE985, offset: 0x181E6, size: 0x8, addend: 0x0, symName: __ZN14ConsoleManager11printHeaderEv, symObjAddr: 0x260, symBinAddr: 0x100003300, symSize: 0x270 }
  - { offsetInCU: 0xE9AD, offset: 0x1820E, size: 0x8, addend: 0x0, symName: __ZN14ConsoleManager5clearEv, symObjAddr: 0x580, symBinAddr: 0x100003570, symSize: 0x30 }
  - { offsetInCU: 0xE9D5, offset: 0x18236, size: 0x8, addend: 0x0, symName: __ZNSt3__16vectorINS_12basic_stringIcNS_11char_traitsIcEENS_9allocatorIcEEEENS4_IS6_EEEC1B8ue170006Ev, symObjAddr: 0xD20, symBinAddr: 0x100003D10, symSize: 0x20 }
  - { offsetInCU: 0xEB1B, offset: 0x1837C, size: 0x8, addend: 0x0, symName: __ZNSt3__114basic_ifstreamIcNS_11char_traitsIcEEEC1EPKcj, symObjAddr: 0xD60, symBinAddr: 0x100003D30, symSize: 0x160 }
  - { offsetInCU: 0xEB65, offset: 0x183C6, size: 0x8, addend: 0x0, symName: __ZNKSt3__114basic_ifstreamIcNS_11char_traitsIcEEE7is_openEv, symObjAddr: 0xEC0, symBinAddr: 0x100003E90, symSize: 0x30 }
  - { offsetInCU: 0xEB8D, offset: 0x183EE, size: 0x8, addend: 0x0, symName: __ZNKSt3__19basic_iosIcNS_11char_traitsIcEEEcvbB8ue170006Ev, symObjAddr: 0xF40, symBinAddr: 0x100003EC0, symSize: 0x30 }
  - { offsetInCU: 0xEC03, offset: 0x18464, size: 0x8, addend: 0x0, symName: __ZNSt3__119basic_istringstreamIcNS_11char_traitsIcEENS_9allocatorIcEEEC1B8ue170006ERKNS_12basic_stringIcS2_S4_EEj, symObjAddr: 0xF70, symBinAddr: 0x100003EF0, symSize: 0xE0 }
  - { offsetInCU: 0xEC4B, offset: 0x184AC, size: 0x8, addend: 0x0, symName: __ZNSt3__113basic_istreamIcNS_11char_traitsIcEEErsB8ue170006EPFRS3_S4_E, symObjAddr: 0x1320, symBinAddr: 0x1000042A0, symSize: 0x20 }
  - { offsetInCU: 0xEC7F, offset: 0x184E0, size: 0x8, addend: 0x0, symName: __ZNSt3__112basic_stringIcNS_11char_traitsIcEENS_9allocatorIcEEE5frontB8ue170006Ev, symObjAddr: 0x1570, symBinAddr: 0x1000044F0, symSize: 0x20 }
  - { offsetInCU: 0xECA5, offset: 0x18506, size: 0x8, addend: 0x0, symName: __ZNSt3__112basic_stringIcNS_11char_traitsIcEENS_9allocatorIcEEE4backB8ue170006Ev, symObjAddr: 0x1590, symBinAddr: 0x100004510, symSize: 0x40 }
  - { offsetInCU: 0xECCB, offset: 0x1852C, size: 0x8, addend: 0x0, symName: __ZNKSt3__112basic_stringIcNS_11char_traitsIcEENS_9allocatorIcEEE6substrB8ue170006Emm, symObjAddr: 0x15D0, symBinAddr: 0x100004550, symSize: 0x70 }
  - { offsetInCU: 0xED0F, offset: 0x18570, size: 0x8, addend: 0x0, symName: __ZNKSt3__112basic_stringIcNS_11char_traitsIcEENS_9allocatorIcEEE6lengthB8ue170006Ev, symObjAddr: 0x1640, symBinAddr: 0x1000045C0, symSize: 0x20 }
  - { offsetInCU: 0xED35, offset: 0x18596, size: 0x8, addend: 0x0, symName: __ZNSt3__112basic_stringIcNS_11char_traitsIcEENS_9allocatorIcEEEaSB8ue170006EOS5_, symObjAddr: 0x1660, symBinAddr: 0x1000045E0, symSize: 0x30 }
  - { offsetInCU: 0xED6A, offset: 0x185CB, size: 0x8, addend: 0x0, symName: __ZNSt3__16vectorINS_12basic_stringIcNS_11char_traitsIcEENS_9allocatorIcEEEENS4_IS6_EEE9push_backB8ue170006ERKS6_, symObjAddr: 0x1690, symBinAddr: 0x100004610, symSize: 0x60 }
  - { offsetInCU: 0xEDA6, offset: 0x18607, size: 0x8, addend: 0x0, symName: __ZNSt3__119basic_istringstreamIcNS_11char_traitsIcEENS_9allocatorIcEEED1Ev, symObjAddr: 0x16F0, symBinAddr: 0x100004670, symSize: 0x40 }
  - { offsetInCU: 0xEDD3, offset: 0x18634, size: 0x8, addend: 0x0, symName: __ZNSt3__114basic_ifstreamIcNS_11char_traitsIcEEE5closeEv, symObjAddr: 0x1730, symBinAddr: 0x1000046B0, symSize: 0x50 }
  - { offsetInCU: 0xEDFB, offset: 0x1865C, size: 0x8, addend: 0x0, symName: __ZNSt3__16vectorINS_12basic_stringIcNS_11char_traitsIcEENS_9allocatorIcEEEENS4_IS6_EEEixB8ue170006Em, symObjAddr: 0x1780, symBinAddr: 0x100004700, symSize: 0x20 }
  - { offsetInCU: 0xEE37, offset: 0x18698, size: 0x8, addend: 0x0, symName: '__ZNSt3__16threadC1IZN14ConsoleManager10initializeEvE3$_1JEvEEOT_DpOT0_', symObjAddr: 0x17D0, symBinAddr: 0x100004750, symSize: 0x30 }
  - { offsetInCU: 0xEE84, offset: 0x186E5, size: 0x8, addend: 0x0, symName: __ZNSt3__114basic_ifstreamIcNS_11char_traitsIcEEED1Ev, symObjAddr: 0x1800, symBinAddr: 0x100004780, symSize: 0x40 }
  - { offsetInCU: 0xEEB1, offset: 0x18712, size: 0x8, addend: 0x0, symName: __ZNSt3__16vectorINS_12basic_stringIcNS_11char_traitsIcEENS_9allocatorIcEEEENS4_IS6_EEED1B8ue170006Ev, symObjAddr: 0x1840, symBinAddr: 0x1000047C0, symSize: 0x20 }
  - { offsetInCU: 0xEEDB, offset: 0x1873C, size: 0x8, addend: 0x0, symName: __ZN14ConsoleManager6screenENSt3__112basic_stringIcNS0_11char_traitsIcEENS0_9allocatorIcEEEE, symObjAddr: 0x1860, symBinAddr: 0x1000047E0, symSize: 0x550 }
  - { offsetInCU: 0xEF79, offset: 0x187DA, size: 0x8, addend: 0x0, symName: __ZNKSt3__16vectorINS_12basic_stringIcNS_11char_traitsIcEENS_9allocatorIcEEEENS4_IS6_EEE4sizeB8ue170006Ev, symObjAddr: 0x1E40, symBinAddr: 0x100004D30, symSize: 0x30 }
  - { offsetInCU: 0xEF9F, offset: 0x18800, size: 0x8, addend: 0x0, symName: __ZN14ConsoleManager17generateProcessesEx, symObjAddr: 0x1E70, symBinAddr: 0x100004D60, symSize: 0x230 }
  - { offsetInCU: 0xEFE9, offset: 0x1884A, size: 0x8, addend: 0x0, symName: __ZNK14ConsoleManager12getIsRunningEv, symObjAddr: 0x20A0, symBinAddr: 0x100004F90, symSize: 0x20 }
  - { offsetInCU: 0xF012, offset: 0x18873, size: 0x8, addend: 0x0, symName: __ZN14ConsoleManager16waitForNextCycleEv, symObjAddr: 0x20C0, symBinAddr: 0x100004FB0, symSize: 0xB0 }
  - { offsetInCU: 0xF056, offset: 0x188B7, size: 0x8, addend: 0x0, symName: __ZNK14ConsoleManager11getCPUCycleEv, symObjAddr: 0x21C0, symBinAddr: 0x1000050B0, symSize: 0x20 }
  - { offsetInCU: 0xF084, offset: 0x188E5, size: 0x8, addend: 0x0, symName: __ZNSt3__16chrono8durationIxNS_5ratioILl1ELl1000EEEEC1B8ue170006IiEERKT_PNS_9enable_ifIXaasr14is_convertibleIS8_xEE5valueooL_ZNS_17integral_constantIbLb0EE5valueEEntsr23treat_as_floating_pointIS6_EE5valueEvE4typeE, symObjAddr: 0x22B0, symBinAddr: 0x1000051A0, symSize: 0x30 }
  - { offsetInCU: 0xF0D1, offset: 0x18932, size: 0x8, addend: 0x0, symName: __ZN14ConsoleManager13schedulerTestEv, symObjAddr: 0x22E0, symBinAddr: 0x1000051D0, symSize: 0x140 }
  - { offsetInCU: 0xF0FE, offset: 0x1895F, size: 0x8, addend: 0x0, symName: __ZNSt3__112basic_stringIcNS_11char_traitsIcEENS_9allocatorIcEEEC1B8ue170006ILi0EEEPKc, symObjAddr: 0x2420, symBinAddr: 0x100005310, symSize: 0x30 }
  - { offsetInCU: 0xF14D, offset: 0x189AE, size: 0x8, addend: 0x0, symName: __ZNSt3__16threadC1IM14ConsoleManagerFvxEJPS2_iEvEEOT_DpOT0_, symObjAddr: 0x2450, symBinAddr: 0x100005340, symSize: 0x40 }
  - { offsetInCU: 0xF1BB, offset: 0x18A1C, size: 0x8, addend: 0x0, symName: __ZN14ConsoleManager13schedulerStopEv, symObjAddr: 0x2490, symBinAddr: 0x100005380, symSize: 0x80 }
  - { offsetInCU: 0xF1E3, offset: 0x18A44, size: 0x8, addend: 0x0, symName: __ZNKSt3__16thread8joinableB8ue170006Ev, symObjAddr: 0x2510, symBinAddr: 0x100005400, symSize: 0x40 }
  - { offsetInCU: 0xF209, offset: 0x18A6A, size: 0x8, addend: 0x0, symName: __ZN14ConsoleManager10reportUtilEv, symObjAddr: 0x2550, symBinAddr: 0x100005440, symSize: 0x40 }
  - { offsetInCU: 0xF232, offset: 0x18A93, size: 0x8, addend: 0x0, symName: __ZN14ConsoleManager11stopRunningEv, symObjAddr: 0x2590, symBinAddr: 0x100005480, symSize: 0x40 }
  - { offsetInCU: 0xF25B, offset: 0x18ABC, size: 0x8, addend: 0x0, symName: __ZNSt3__16threadC2B8ue170006Ev, symObjAddr: 0x25D0, symBinAddr: 0x1000054C0, symSize: 0x20 }
  - { offsetInCU: 0xF285, offset: 0x18AE6, size: 0x8, addend: 0x0, symName: __ZNSt3__15mutexC2B8ue170006Ev, symObjAddr: 0x25F0, symBinAddr: 0x1000054E0, symSize: 0x30 }
  - { offsetInCU: 0xF2AF, offset: 0x18B10, size: 0x8, addend: 0x0, symName: __ZNSt3__119basic_istringstreamIcNS_11char_traitsIcEENS_9allocatorIcEEED2Ev, symObjAddr: 0x2680, symBinAddr: 0x100005560, symSize: 0x60 }
  - { offsetInCU: 0xF2E9, offset: 0x18B4A, size: 0x8, addend: 0x0, symName: __ZTv0_n24_NSt3__119basic_istringstreamIcNS_11char_traitsIcEENS_9allocatorIcEEED1Ev, symObjAddr: 0x26E0, symBinAddr: 0x1000055C0, symSize: 0x20 }
  - { offsetInCU: 0xF305, offset: 0x18B66, size: 0x8, addend: 0x0, symName: __ZNSt3__115basic_stringbufIcNS_11char_traitsIcEENS_9allocatorIcEEED1Ev, symObjAddr: 0x2700, symBinAddr: 0x1000055E0, symSize: 0x20 }
  - { offsetInCU: 0xF332, offset: 0x18B93, size: 0x8, addend: 0x0, symName: __ZNSt3__115basic_stringbufIcNS_11char_traitsIcEENS_9allocatorIcEEED2Ev, symObjAddr: 0x2720, symBinAddr: 0x100005600, symSize: 0x40 }
  - { offsetInCU: 0xF35F, offset: 0x18BC0, size: 0x8, addend: 0x0, symName: __ZNSt3__114basic_ifstreamIcNS_11char_traitsIcEEED2Ev, symObjAddr: 0x2760, symBinAddr: 0x100005640, symSize: 0x60 }
  - { offsetInCU: 0xF399, offset: 0x18BFA, size: 0x8, addend: 0x0, symName: __ZTv0_n24_NSt3__114basic_ifstreamIcNS_11char_traitsIcEEED1Ev, symObjAddr: 0x27C0, symBinAddr: 0x1000056A0, symSize: 0x20 }
  - { offsetInCU: 0xF3B0, offset: 0x18C11, size: 0x8, addend: 0x0, symName: __ZNSt3__16chrono8durationIxNS_5ratioILl1ELl1000EEEEC2B8ue170006IiEERKT_PNS_9enable_ifIXaasr14is_convertibleIS8_xEE5valueooL_ZNS_17integral_constantIbLb0EE5valueEEntsr23treat_as_floating_pointIS6_EE5valueEvE4typeE, symObjAddr: 0x27E0, symBinAddr: 0x1000056C0, symSize: 0x20 }
  - { offsetInCU: 0xF402, offset: 0x18C63, size: 0x8, addend: 0x0, symName: __ZNSt3__112basic_stringIcNS_11char_traitsIcEENS_9allocatorIcEEE13__move_assignB8ue170006ERS5_NS_17integral_constantIbLb1EEE, symObjAddr: 0x2990, symBinAddr: 0x1000056E0, symSize: 0xD0 }
  - { offsetInCU: 0xF445, offset: 0x18CA6, size: 0x8, addend: 0x0, symName: __ZNSt3__116allocator_traitsINS_9allocatorIcEEE10deallocateB8ue170006ERS2_Pcm, symObjAddr: 0x2A90, symBinAddr: 0x1000057B0, symSize: 0x30 }
  - { offsetInCU: 0xF487, offset: 0x18CE8, size: 0x8, addend: 0x0, symName: __ZNSt3__112basic_stringIcNS_11char_traitsIcEENS_9allocatorIcEEE7__allocB8ue170006Ev, symObjAddr: 0x2AC0, symBinAddr: 0x1000057E0, symSize: 0x20 }
  - { offsetInCU: 0xF4AD, offset: 0x18D0E, size: 0x8, addend: 0x0, symName: __ZNKSt3__112basic_stringIcNS_11char_traitsIcEENS_9allocatorIcEEE14__get_long_capB8ue170006Ev, symObjAddr: 0x2B00, symBinAddr: 0x100005800, symSize: 0x30 }
  - { offsetInCU: 0xF4D3, offset: 0x18D34, size: 0x8, addend: 0x0, symName: __ZNSt3__112basic_stringIcNS_11char_traitsIcEENS_9allocatorIcEEE19__move_assign_allocB8ue170006ERS5_, symObjAddr: 0x2B30, symBinAddr: 0x100005830, symSize: 0x30 }
  - { offsetInCU: 0xF508, offset: 0x18D69, size: 0x8, addend: 0x0, symName: __ZNSt3__19allocatorIcE10deallocateB8ue170006EPcm, symObjAddr: 0x2C30, symBinAddr: 0x100005860, symSize: 0x40 }
  - { offsetInCU: 0xF54A, offset: 0x18DAB, size: 0x8, addend: 0x0, symName: __ZNSt3__117__compressed_pairINS_12basic_stringIcNS_11char_traitsIcEENS_9allocatorIcEEE5__repES5_E6secondB8ue170006Ev, symObjAddr: 0x2CE0, symBinAddr: 0x100005910, symSize: 0x20 }
  - { offsetInCU: 0xF570, offset: 0x18DD1, size: 0x8, addend: 0x0, symName: __ZNSt3__122__compressed_pair_elemINS_9allocatorIcEELi1ELb1EE5__getB8ue170006Ev, symObjAddr: 0x2D00, symBinAddr: 0x100005930, symSize: 0x10 }
  - { offsetInCU: 0xF596, offset: 0x18DF7, size: 0x8, addend: 0x0, symName: __ZNSt3__112basic_stringIcNS_11char_traitsIcEENS_9allocatorIcEEE19__move_assign_allocB8ue170006ERS5_NS_17integral_constantIbLb1EEE, symObjAddr: 0x2D10, symBinAddr: 0x100005940, symSize: 0x30 }
  - { offsetInCU: 0xF5D7, offset: 0x18E38, size: 0x8, addend: 0x0, symName: '__ZNSt3__16threadC2IZN14ConsoleManager13startCPUCycleEvE3$_0JEvEEOT_DpOT0_', symObjAddr: 0x2D50, symBinAddr: 0x100005970, symSize: 0x140 }
  - { offsetInCU: 0xF64F, offset: 0x18EB0, size: 0x8, addend: 0x0, symName: __ZNSt3__110unique_ptrINS_15__thread_structENS_14default_deleteIS1_EEEC1B8ue170006ILb1EvEEPS1_, symObjAddr: 0x2E90, symBinAddr: 0x100005AB0, symSize: 0x30 }
  - { offsetInCU: 0xF692, offset: 0x18EF3, size: 0x8, addend: 0x0, symName: '__ZNSt3__15tupleIJNS_10unique_ptrINS_15__thread_structENS_14default_deleteIS2_EEEEZN14ConsoleManager13startCPUCycleEvE3$_0EEC1B8ue170006IJS5_S7_ELi0EEEDpOT_', symObjAddr: 0x2EC0, symBinAddr: 0x100005AE0, symSize: 0x30 }
  - { offsetInCU: 0xF782, offset: 0x18FE3, size: 0x8, addend: 0x0, symName: '__ZNSt3__110unique_ptrINS_5tupleIJNS0_INS_15__thread_structENS_14default_deleteIS2_EEEEZN14ConsoleManager13startCPUCycleEvE3$_0EEENS3_IS8_EEEC1B8ue170006ILb1EvEEPS8_', symObjAddr: 0x2EF0, symBinAddr: 0x100005B10, symSize: 0x30 }
  - { offsetInCU: 0xF7C5, offset: 0x19026, size: 0x8, addend: 0x0, symName: '__ZNKSt3__110unique_ptrINS_5tupleIJNS0_INS_15__thread_structENS_14default_deleteIS2_EEEEZN14ConsoleManager13startCPUCycleEvE3$_0EEENS3_IS8_EEE3getB8ue170006Ev', symObjAddr: 0x2FF0, symBinAddr: 0x100005C10, symSize: 0x20 }
  - { offsetInCU: 0xF7EB, offset: 0x1904C, size: 0x8, addend: 0x0, symName: '__ZNSt3__110unique_ptrINS_5tupleIJNS0_INS_15__thread_structENS_14default_deleteIS2_EEEEZN14ConsoleManager13startCPUCycleEvE3$_0EEENS3_IS8_EEE7releaseB8ue170006Ev', symObjAddr: 0x3010, symBinAddr: 0x100005C30, symSize: 0x40 }
  - { offsetInCU: 0xF820, offset: 0x19081, size: 0x8, addend: 0x0, symName: '__ZNSt3__110unique_ptrINS_5tupleIJNS0_INS_15__thread_structENS_14default_deleteIS2_EEEEZN14ConsoleManager13startCPUCycleEvE3$_0EEENS3_IS8_EEED1B8ue170006Ev', symObjAddr: 0x3050, symBinAddr: 0x100005C70, symSize: 0x20 }
  - { offsetInCU: 0xF84A, offset: 0x190AB, size: 0x8, addend: 0x0, symName: __ZNSt3__110unique_ptrINS_15__thread_structENS_14default_deleteIS1_EEED1B8ue170006Ev, symObjAddr: 0x3070, symBinAddr: 0x100005C90, symSize: 0x20 }
  - { offsetInCU: 0xF874, offset: 0x190D5, size: 0x8, addend: 0x0, symName: __ZNSt3__110unique_ptrINS_15__thread_structENS_14default_deleteIS1_EEEC2B8ue170006ILb1EvEEPS1_, symObjAddr: 0x3090, symBinAddr: 0x100005CB0, symSize: 0x40 }
  - { offsetInCU: 0xF8BC, offset: 0x1911D, size: 0x8, addend: 0x0, symName: __ZNSt3__117__compressed_pairIPNS_15__thread_structENS_14default_deleteIS1_EEEC1B8ue170006IRS2_NS_16__value_init_tagEEEOT_OT0_, symObjAddr: 0x30D0, symBinAddr: 0x100005CF0, symSize: 0x30 }
  - { offsetInCU: 0xF914, offset: 0x19175, size: 0x8, addend: 0x0, symName: __ZNSt3__117__compressed_pairIPNS_15__thread_structENS_14default_deleteIS1_EEEC2B8ue170006IRS2_NS_16__value_init_tagEEEOT_OT0_, symObjAddr: 0x3100, symBinAddr: 0x100005D20, symSize: 0x40 }
  - { offsetInCU: 0xF96C, offset: 0x191CD, size: 0x8, addend: 0x0, symName: __ZNSt3__122__compressed_pair_elemIPNS_15__thread_structELi0ELb0EEC2B8ue170006IRS2_vEEOT_, symObjAddr: 0x3140, symBinAddr: 0x100005D60, symSize: 0x20 }
  - { offsetInCU: 0xF9AE, offset: 0x1920F, size: 0x8, addend: 0x0, symName: __ZNSt3__122__compressed_pair_elemINS_14default_deleteINS_15__thread_structEEELi1ELb1EEC2B8ue170006ENS_16__value_init_tagE, symObjAddr: 0x3160, symBinAddr: 0x100005D80, symSize: 0x10 }
  - { offsetInCU: 0xF9E2, offset: 0x19243, size: 0x8, addend: 0x0, symName: '__ZNSt3__15tupleIJNS_10unique_ptrINS_15__thread_structENS_14default_deleteIS2_EEEEZN14ConsoleManager13startCPUCycleEvE3$_0EEC2B8ue170006IJS5_S7_ELi0EEEDpOT_', symObjAddr: 0x3170, symBinAddr: 0x100005D90, symSize: 0x30 }
  - { offsetInCU: 0xFA41, offset: 0x192A2, size: 0x8, addend: 0x0, symName: '__ZNSt3__112__tuple_implINS_15__tuple_indicesIJLm0ELm1EEEEJNS_10unique_ptrINS_15__thread_structENS_14default_deleteIS4_EEEEZN14ConsoleManager13startCPUCycleEvE3$_0EEC1B8ue170006IJLm0ELm1EEJS7_S9_EJEJEJS7_S9_EEENS1_IJXspT_EEEENS_13__tuple_typesIJDpT0_EEENS1_IJXspT1_EEEENSD_IJDpT2_EEEDpOT3_', symObjAddr: 0x31A0, symBinAddr: 0x100005DC0, symSize: 0x30 }
  - { offsetInCU: 0xFAF7, offset: 0x19358, size: 0x8, addend: 0x0, symName: '__ZNSt3__112__tuple_implINS_15__tuple_indicesIJLm0ELm1EEEEJNS_10unique_ptrINS_15__thread_structENS_14default_deleteIS4_EEEEZN14ConsoleManager13startCPUCycleEvE3$_0EEC2B8ue170006IJLm0ELm1EEJS7_S9_EJEJEJS7_S9_EEENS1_IJXspT_EEEENS_13__tuple_typesIJDpT0_EEENS1_IJXspT1_EEEENSD_IJDpT2_EEEDpOT3_', symObjAddr: 0x31D0, symBinAddr: 0x100005DF0, symSize: 0x40 }
  - { offsetInCU: 0xFBAD, offset: 0x1940E, size: 0x8, addend: 0x0, symName: __ZNSt3__112__tuple_leafILm0ENS_10unique_ptrINS_15__thread_structENS_14default_deleteIS2_EEEELb0EEC2B8ue170006IS5_vEEOT_, symObjAddr: 0x3210, symBinAddr: 0x100005E30, symSize: 0x30 }
  - { offsetInCU: 0xFBF0, offset: 0x19451, size: 0x8, addend: 0x0, symName: '__ZNSt3__112__tuple_leafILm1EZN14ConsoleManager13startCPUCycleEvE3$_0Lb0EEC2B8ue170006IS2_vEEOT_', symObjAddr: 0x3240, symBinAddr: 0x100005E60, symSize: 0x20 }
  - { offsetInCU: 0xFC33, offset: 0x19494, size: 0x8, addend: 0x0, symName: __ZNSt3__110unique_ptrINS_15__thread_structENS_14default_deleteIS1_EEEC1B8ue170006EOS4_, symObjAddr: 0x3260, symBinAddr: 0x100005E80, symSize: 0x30 }
  - { offsetInCU: 0xFC6B, offset: 0x194CC, size: 0x8, addend: 0x0, symName: __ZNSt3__110unique_ptrINS_15__thread_structENS_14default_deleteIS1_EEEC2B8ue170006EOS4_, symObjAddr: 0x3290, symBinAddr: 0x100005EB0, symSize: 0x60 }
  - { offsetInCU: 0xFCA3, offset: 0x19504, size: 0x8, addend: 0x0, symName: __ZNSt3__110unique_ptrINS_15__thread_structENS_14default_deleteIS1_EEE7releaseB8ue170006Ev, symObjAddr: 0x32F0, symBinAddr: 0x100005F10, symSize: 0x40 }
  - { offsetInCU: 0xFCD8, offset: 0x19539, size: 0x8, addend: 0x0, symName: __ZNSt3__110unique_ptrINS_15__thread_structENS_14default_deleteIS1_EEE11get_deleterB8ue170006Ev, symObjAddr: 0x3330, symBinAddr: 0x100005F50, symSize: 0x20 }
  - { offsetInCU: 0xFD08, offset: 0x19569, size: 0x8, addend: 0x0, symName: __ZNSt3__117__compressed_pairIPNS_15__thread_structENS_14default_deleteIS1_EEEC1B8ue170006IS2_S4_EEOT_OT0_, symObjAddr: 0x3350, symBinAddr: 0x100005F70, symSize: 0x30 }
  - { offsetInCU: 0xFD60, offset: 0x195C1, size: 0x8, addend: 0x0, symName: __ZNSt3__117__compressed_pairIPNS_15__thread_structENS_14default_deleteIS1_EEE5firstB8ue170006Ev, symObjAddr: 0x3380, symBinAddr: 0x100005FA0, symSize: 0x20 }
  - { offsetInCU: 0xFD86, offset: 0x195E7, size: 0x8, addend: 0x0, symName: __ZNSt3__122__compressed_pair_elemIPNS_15__thread_structELi0ELb0EE5__getB8ue170006Ev, symObjAddr: 0x33A0, symBinAddr: 0x100005FC0, symSize: 0x10 }
  - { offsetInCU: 0xFDAC, offset: 0x1960D, size: 0x8, addend: 0x0, symName: __ZNSt3__117__compressed_pairIPNS_15__thread_structENS_14default_deleteIS1_EEE6secondB8ue170006Ev, symObjAddr: 0x33B0, symBinAddr: 0x100005FD0, symSize: 0x20 }
  - { offsetInCU: 0xFDD2, offset: 0x19633, size: 0x8, addend: 0x0, symName: __ZNSt3__122__compressed_pair_elemINS_14default_deleteINS_15__thread_structEEELi1ELb1EE5__getB8ue170006Ev, symObjAddr: 0x33D0, symBinAddr: 0x100005FF0, symSize: 0x10 }
  - { offsetInCU: 0xFDF8, offset: 0x19659, size: 0x8, addend: 0x0, symName: __ZNSt3__117__compressed_pairIPNS_15__thread_structENS_14default_deleteIS1_EEEC2B8ue170006IS2_S4_EEOT_OT0_, symObjAddr: 0x33E0, symBinAddr: 0x100006000, symSize: 0x40 }
  - { offsetInCU: 0xFE50, offset: 0x196B1, size: 0x8, addend: 0x0, symName: __ZNSt3__122__compressed_pair_elemIPNS_15__thread_structELi0ELb0EEC2B8ue170006IS2_vEEOT_, symObjAddr: 0x3420, symBinAddr: 0x100006040, symSize: 0x20 }
  - { offsetInCU: 0xFE92, offset: 0x196F3, size: 0x8, addend: 0x0, symName: __ZNSt3__122__compressed_pair_elemINS_14default_deleteINS_15__thread_structEEELi1ELb1EEC2B8ue170006IS3_vEEOT_, symObjAddr: 0x3440, symBinAddr: 0x100006060, symSize: 0x10 }
  - { offsetInCU: 0xFED4, offset: 0x19735, size: 0x8, addend: 0x0, symName: '__ZNSt3__110unique_ptrINS_5tupleIJNS0_INS_15__thread_structENS_14default_deleteIS2_EEEEZN14ConsoleManager13startCPUCycleEvE3$_0EEENS3_IS8_EEEC2B8ue170006ILb1EvEEPS8_', symObjAddr: 0x3450, symBinAddr: 0x100006070, symSize: 0x40 }
  - { offsetInCU: 0xFF17, offset: 0x19778, size: 0x8, addend: 0x0, symName: '__ZNSt3__117__compressed_pairIPNS_5tupleIJNS_10unique_ptrINS_15__thread_structENS_14default_deleteIS3_EEEEZN14ConsoleManager13startCPUCycleEvE3$_0EEENS4_IS9_EEEC1B8ue170006IRSA_NS_16__value_init_tagEEEOT_OT0_', symObjAddr: 0x3490, symBinAddr: 0x1000060B0, symSize: 0x30 }
  - { offsetInCU: 0xFF6F, offset: 0x197D0, size: 0x8, addend: 0x0, symName: '__ZNSt3__117__compressed_pairIPNS_5tupleIJNS_10unique_ptrINS_15__thread_structENS_14default_deleteIS3_EEEEZN14ConsoleManager13startCPUCycleEvE3$_0EEENS4_IS9_EEEC2B8ue170006IRSA_NS_16__value_init_tagEEEOT_OT0_', symObjAddr: 0x34C0, symBinAddr: 0x1000060E0, symSize: 0x40 }
  - { offsetInCU: 0xFFC7, offset: 0x19828, size: 0x8, addend: 0x0, symName: '__ZNSt3__122__compressed_pair_elemIPNS_5tupleIJNS_10unique_ptrINS_15__thread_structENS_14default_deleteIS3_EEEEZN14ConsoleManager13startCPUCycleEvE3$_0EEELi0ELb0EEC2B8ue170006IRSA_vEEOT_', symObjAddr: 0x3500, symBinAddr: 0x100006120, symSize: 0x20 }
  - { offsetInCU: 0x10009, offset: 0x1986A, size: 0x8, addend: 0x0, symName: '__ZNSt3__122__compressed_pair_elemINS_14default_deleteINS_5tupleIJNS_10unique_ptrINS_15__thread_structENS1_IS4_EEEEZN14ConsoleManager13startCPUCycleEvE3$_0EEEEELi1ELb1EEC2B8ue170006ENS_16__value_init_tagE', symObjAddr: 0x3520, symBinAddr: 0x100006140, symSize: 0x10 }
  - { offsetInCU: 0x1006C, offset: 0x198CD, size: 0x8, addend: 0x0, symName: __ZNSt3__121__thread_specific_ptrINS_15__thread_structEE11set_pointerEPS1_, symObjAddr: 0x3530, symBinAddr: 0x100006150, symSize: 0x30 }
  - { offsetInCU: 0x100A1, offset: 0x19902, size: 0x8, addend: 0x0, symName: __ZNSt3__112__tuple_leafILm0ENS_10unique_ptrINS_15__thread_structENS_14default_deleteIS2_EEEELb0EE3getB8ue170006Ev, symObjAddr: 0x35E0, symBinAddr: 0x100006200, symSize: 0x10 }
  - { offsetInCU: 0x100CC, offset: 0x1992D, size: 0x8, addend: 0x0, symName: '__ZZN14ConsoleManager13startCPUCycleEvENK3$_0clEv', symObjAddr: 0x3630, symBinAddr: 0x100006250, symSize: 0x50 }
  - { offsetInCU: 0x10104, offset: 0x19965, size: 0x8, addend: 0x0, symName: '__ZNSt3__112__tuple_leafILm1EZN14ConsoleManager13startCPUCycleEvE3$_0Lb0EE3getB8ue170006Ev', symObjAddr: 0x3680, symBinAddr: 0x1000062A0, symSize: 0x10 }
  - { offsetInCU: 0x1012A, offset: 0x1998B, size: 0x8, addend: 0x0, symName: '__ZNKSt3__117__compressed_pairIPNS_5tupleIJNS_10unique_ptrINS_15__thread_structENS_14default_deleteIS3_EEEEZN14ConsoleManager13startCPUCycleEvE3$_0EEENS4_IS9_EEE5firstB8ue170006Ev', symObjAddr: 0x3690, symBinAddr: 0x1000062B0, symSize: 0x20 }
  - { offsetInCU: 0x10150, offset: 0x199B1, size: 0x8, addend: 0x0, symName: '__ZNKSt3__122__compressed_pair_elemIPNS_5tupleIJNS_10unique_ptrINS_15__thread_structENS_14default_deleteIS3_EEEEZN14ConsoleManager13startCPUCycleEvE3$_0EEELi0ELb0EE5__getB8ue170006Ev', symObjAddr: 0x36B0, symBinAddr: 0x1000062D0, symSize: 0x10 }
  - { offsetInCU: 0x10176, offset: 0x199D7, size: 0x8, addend: 0x0, symName: '__ZNSt3__117__compressed_pairIPNS_5tupleIJNS_10unique_ptrINS_15__thread_structENS_14default_deleteIS3_EEEEZN14ConsoleManager13startCPUCycleEvE3$_0EEENS4_IS9_EEE5firstB8ue170006Ev', symObjAddr: 0x36C0, symBinAddr: 0x1000062E0, symSize: 0x20 }
  - { offsetInCU: 0x1019C, offset: 0x199FD, size: 0x8, addend: 0x0, symName: '__ZNSt3__122__compressed_pair_elemIPNS_5tupleIJNS_10unique_ptrINS_15__thread_structENS_14default_deleteIS3_EEEEZN14ConsoleManager13startCPUCycleEvE3$_0EEELi0ELb0EE5__getB8ue170006Ev', symObjAddr: 0x36E0, symBinAddr: 0x100006300, symSize: 0x10 }
  - { offsetInCU: 0x101C2, offset: 0x19A23, size: 0x8, addend: 0x0, symName: '__ZNSt3__110unique_ptrINS_5tupleIJNS0_INS_15__thread_structENS_14default_deleteIS2_EEEEZN14ConsoleManager13startCPUCycleEvE3$_0EEENS3_IS8_EEED2B8ue170006Ev', symObjAddr: 0x36F0, symBinAddr: 0x100006310, symSize: 0x20 }
  - { offsetInCU: 0x101EC, offset: 0x19A4D, size: 0x8, addend: 0x0, symName: '__ZNSt3__110unique_ptrINS_5tupleIJNS0_INS_15__thread_structENS_14default_deleteIS2_EEEEZN14ConsoleManager13startCPUCycleEvE3$_0EEENS3_IS8_EEE5resetB8ue170006EPS8_', symObjAddr: 0x3710, symBinAddr: 0x100006330, symSize: 0x70 }
  - { offsetInCU: 0x10230, offset: 0x19A91, size: 0x8, addend: 0x0, symName: '__ZNSt3__117__compressed_pairIPNS_5tupleIJNS_10unique_ptrINS_15__thread_structENS_14default_deleteIS3_EEEEZN14ConsoleManager13startCPUCycleEvE3$_0EEENS4_IS9_EEE6secondB8ue170006Ev', symObjAddr: 0x3780, symBinAddr: 0x1000063A0, symSize: 0x20 }
  - { offsetInCU: 0x10256, offset: 0x19AB7, size: 0x8, addend: 0x0, symName: '__ZNKSt3__114default_deleteINS_5tupleIJNS_10unique_ptrINS_15__thread_structENS0_IS3_EEEEZN14ConsoleManager13startCPUCycleEvE3$_0EEEEclB8ue170006EPS8_', symObjAddr: 0x37A0, symBinAddr: 0x1000063C0, symSize: 0x40 }
  - { offsetInCU: 0x1028A, offset: 0x19AEB, size: 0x8, addend: 0x0, symName: '__ZNSt3__122__compressed_pair_elemINS_14default_deleteINS_5tupleIJNS_10unique_ptrINS_15__thread_structENS1_IS4_EEEEZN14ConsoleManager13startCPUCycleEvE3$_0EEEEELi1ELb1EE5__getB8ue170006Ev', symObjAddr: 0x37E0, symBinAddr: 0x100006400, symSize: 0x10 }
  - { offsetInCU: 0x102B0, offset: 0x19B11, size: 0x8, addend: 0x0, symName: '__ZNSt3__15tupleIJNS_10unique_ptrINS_15__thread_structENS_14default_deleteIS2_EEEEZN14ConsoleManager13startCPUCycleEvE3$_0EED1Ev', symObjAddr: 0x37F0, symBinAddr: 0x100006410, symSize: 0x20 }
  - { offsetInCU: 0x102DD, offset: 0x19B3E, size: 0x8, addend: 0x0, symName: '__ZNSt3__15tupleIJNS_10unique_ptrINS_15__thread_structENS_14default_deleteIS2_EEEEZN14ConsoleManager13startCPUCycleEvE3$_0EED2Ev', symObjAddr: 0x3810, symBinAddr: 0x100006430, symSize: 0x20 }
  - { offsetInCU: 0x1030A, offset: 0x19B6B, size: 0x8, addend: 0x0, symName: '__ZNSt3__112__tuple_implINS_15__tuple_indicesIJLm0ELm1EEEEJNS_10unique_ptrINS_15__thread_structENS_14default_deleteIS4_EEEEZN14ConsoleManager13startCPUCycleEvE3$_0EED1Ev', symObjAddr: 0x3830, symBinAddr: 0x100006450, symSize: 0x20 }
  - { offsetInCU: 0x10337, offset: 0x19B98, size: 0x8, addend: 0x0, symName: '__ZNSt3__112__tuple_implINS_15__tuple_indicesIJLm0ELm1EEEEJNS_10unique_ptrINS_15__thread_structENS_14default_deleteIS4_EEEEZN14ConsoleManager13startCPUCycleEvE3$_0EED2Ev', symObjAddr: 0x3850, symBinAddr: 0x100006470, symSize: 0x20 }
  - { offsetInCU: 0x10364, offset: 0x19BC5, size: 0x8, addend: 0x0, symName: __ZNSt3__112__tuple_leafILm0ENS_10unique_ptrINS_15__thread_structENS_14default_deleteIS2_EEEELb0EED2Ev, symObjAddr: 0x3870, symBinAddr: 0x100006490, symSize: 0x20 }
  - { offsetInCU: 0x10391, offset: 0x19BF2, size: 0x8, addend: 0x0, symName: __ZNSt3__110unique_ptrINS_15__thread_structENS_14default_deleteIS1_EEED2B8ue170006Ev, symObjAddr: 0x3890, symBinAddr: 0x1000064B0, symSize: 0x20 }
  - { offsetInCU: 0x103BB, offset: 0x19C1C, size: 0x8, addend: 0x0, symName: __ZNSt3__110unique_ptrINS_15__thread_structENS_14default_deleteIS1_EEE5resetB8ue170006EPS1_, symObjAddr: 0x38B0, symBinAddr: 0x1000064D0, symSize: 0x70 }
  - { offsetInCU: 0x103FF, offset: 0x19C60, size: 0x8, addend: 0x0, symName: __ZNKSt3__114default_deleteINS_15__thread_structEEclB8ue170006EPS1_, symObjAddr: 0x3920, symBinAddr: 0x100006540, symSize: 0x40 }
  - { offsetInCU: 0x10438, offset: 0x19C99, size: 0x8, addend: 0x0, symName: __ZNSt3__16vectorINS_12basic_stringIcNS_11char_traitsIcEENS_9allocatorIcEEEENS4_IS6_EEEC2B8ue170006Ev, symObjAddr: 0x42B0, symBinAddr: 0x100006580, symSize: 0x50 }
  - { offsetInCU: 0x10467, offset: 0x19CC8, size: 0x8, addend: 0x0, symName: __ZNSt3__117__compressed_pairIPNS_12basic_stringIcNS_11char_traitsIcEENS_9allocatorIcEEEENS4_IS6_EEEC1B8ue170006IDnNS_18__default_init_tagEEEOT_OT0_, symObjAddr: 0x4300, symBinAddr: 0x1000065D0, symSize: 0x30 }
  - { offsetInCU: 0x104BF, offset: 0x19D20, size: 0x8, addend: 0x0, symName: __ZNSt3__117__compressed_pairIPNS_12basic_stringIcNS_11char_traitsIcEENS_9allocatorIcEEEENS4_IS6_EEEC2B8ue170006IDnNS_18__default_init_tagEEEOT_OT0_, symObjAddr: 0x4330, symBinAddr: 0x100006600, symSize: 0x40 }
  - { offsetInCU: 0x10517, offset: 0x19D78, size: 0x8, addend: 0x0, symName: __ZNSt3__122__compressed_pair_elemIPNS_12basic_stringIcNS_11char_traitsIcEENS_9allocatorIcEEEELi0ELb0EEC2B8ue170006IDnvEEOT_, symObjAddr: 0x4370, symBinAddr: 0x100006640, symSize: 0x20 }
  - { offsetInCU: 0x10559, offset: 0x19DBA, size: 0x8, addend: 0x0, symName: __ZNSt3__122__compressed_pair_elemINS_9allocatorINS_12basic_stringIcNS_11char_traitsIcEENS1_IcEEEEEELi1ELb1EEC2B8ue170006ENS_18__default_init_tagE, symObjAddr: 0x4390, symBinAddr: 0x100006660, symSize: 0x20 }
  - { offsetInCU: 0x1058D, offset: 0x19DEE, size: 0x8, addend: 0x0, symName: __ZNSt3__19allocatorINS_12basic_stringIcNS_11char_traitsIcEENS0_IcEEEEEC2B8ue170006Ev, symObjAddr: 0x43B0, symBinAddr: 0x100006680, symSize: 0x20 }
  - { offsetInCU: 0x105B7, offset: 0x19E18, size: 0x8, addend: 0x0, symName: __ZNSt3__116__non_trivial_ifILb1ENS_9allocatorINS_12basic_stringIcNS_11char_traitsIcEENS1_IcEEEEEEEC2B8ue170006Ev, symObjAddr: 0x43D0, symBinAddr: 0x1000066A0, symSize: 0x10 }
  - { offsetInCU: 0x105E1, offset: 0x19E42, size: 0x8, addend: 0x0, symName: __ZNSt3__16vectorINS_12basic_stringIcNS_11char_traitsIcEENS_9allocatorIcEEEENS4_IS6_EEED2B8ue170006Ev, symObjAddr: 0x43E0, symBinAddr: 0x1000066B0, symSize: 0x40 }
  - { offsetInCU: 0x1060B, offset: 0x19E6C, size: 0x8, addend: 0x0, symName: __ZNSt3__16vectorINS_12basic_stringIcNS_11char_traitsIcEENS_9allocatorIcEEEENS4_IS6_EEE16__destroy_vectorC1B8ue170006ERS8_, symObjAddr: 0x4420, symBinAddr: 0x1000066F0, symSize: 0x30 }
  - { offsetInCU: 0x10644, offset: 0x19EA5, size: 0x8, addend: 0x0, symName: __ZNSt3__16vectorINS_12basic_stringIcNS_11char_traitsIcEENS_9allocatorIcEEEENS4_IS6_EEE16__destroy_vectorclB8ue170006Ev, symObjAddr: 0x4450, symBinAddr: 0x100006720, symSize: 0x80 }
  - { offsetInCU: 0x1066A, offset: 0x19ECB, size: 0x8, addend: 0x0, symName: __ZNSt3__16vectorINS_12basic_stringIcNS_11char_traitsIcEENS_9allocatorIcEEEENS4_IS6_EEE16__destroy_vectorC2B8ue170006ERS8_, symObjAddr: 0x44D0, symBinAddr: 0x1000067A0, symSize: 0x20 }
  - { offsetInCU: 0x106A3, offset: 0x19F04, size: 0x8, addend: 0x0, symName: __ZNSt3__16vectorINS_12basic_stringIcNS_11char_traitsIcEENS_9allocatorIcEEEENS4_IS6_EEE7__clearB8ue170006Ev, symObjAddr: 0x44F0, symBinAddr: 0x1000067C0, symSize: 0x20 }
  - { offsetInCU: 0x106C9, offset: 0x19F2A, size: 0x8, addend: 0x0, symName: __ZNKSt3__16vectorINS_12basic_stringIcNS_11char_traitsIcEENS_9allocatorIcEEEENS4_IS6_EEE17__annotate_deleteB8ue170006Ev, symObjAddr: 0x4510, symBinAddr: 0x1000067E0, symSize: 0xB0 }
  - { offsetInCU: 0x106EF, offset: 0x19F50, size: 0x8, addend: 0x0, symName: __ZNSt3__116allocator_traitsINS_9allocatorINS_12basic_stringIcNS_11char_traitsIcEENS1_IcEEEEEEE10deallocateB8ue170006ERS7_PS6_m, symObjAddr: 0x45C0, symBinAddr: 0x100006890, symSize: 0x30 }
  - { offsetInCU: 0x10731, offset: 0x19F92, size: 0x8, addend: 0x0, symName: __ZNSt3__16vectorINS_12basic_stringIcNS_11char_traitsIcEENS_9allocatorIcEEEENS4_IS6_EEE7__allocB8ue170006Ev, symObjAddr: 0x45F0, symBinAddr: 0x1000068C0, symSize: 0x20 }
  - { offsetInCU: 0x10757, offset: 0x19FB8, size: 0x8, addend: 0x0, symName: __ZNKSt3__16vectorINS_12basic_stringIcNS_11char_traitsIcEENS_9allocatorIcEEEENS4_IS6_EEE8capacityB8ue170006Ev, symObjAddr: 0x4610, symBinAddr: 0x1000068E0, symSize: 0x40 }
  - { offsetInCU: 0x1077D, offset: 0x19FDE, size: 0x8, addend: 0x0, symName: __ZNSt3__16vectorINS_12basic_stringIcNS_11char_traitsIcEENS_9allocatorIcEEEENS4_IS6_EEE22__base_destruct_at_endB8ue170006EPS6_, symObjAddr: 0x4650, symBinAddr: 0x100006920, symSize: 0x80 }
  - { offsetInCU: 0x107C1, offset: 0x1A022, size: 0x8, addend: 0x0, symName: __ZNSt3__116allocator_traitsINS_9allocatorINS_12basic_stringIcNS_11char_traitsIcEENS1_IcEEEEEEE7destroyB8ue170006IS6_vEEvRS7_PT_, symObjAddr: 0x46D0, symBinAddr: 0x1000069A0, symSize: 0x30 }
  - { offsetInCU: 0x107FE, offset: 0x1A05F, size: 0x8, addend: 0x0, symName: __ZNSt3__19allocatorINS_12basic_stringIcNS_11char_traitsIcEENS0_IcEEEEE7destroyB8ue170006EPS5_, symObjAddr: 0x4710, symBinAddr: 0x1000069E0, symSize: 0x20 }
  - { offsetInCU: 0x10832, offset: 0x1A093, size: 0x8, addend: 0x0, symName: __ZNKSt3__16vectorINS_12basic_stringIcNS_11char_traitsIcEENS_9allocatorIcEEEENS4_IS6_EEE31__annotate_contiguous_containerB8ue170006EPKvSA_SA_SA_, symObjAddr: 0x4730, symBinAddr: 0x100006A00, symSize: 0x20 }
  - { offsetInCU: 0x10888, offset: 0x1A0E9, size: 0x8, addend: 0x0, symName: __ZNKSt3__16vectorINS_12basic_stringIcNS_11char_traitsIcEENS_9allocatorIcEEEENS4_IS6_EEE4dataB8ue170006Ev, symObjAddr: 0x4750, symBinAddr: 0x100006A20, symSize: 0x20 }
  - { offsetInCU: 0x108AE, offset: 0x1A10F, size: 0x8, addend: 0x0, symName: __ZNSt3__19allocatorINS_12basic_stringIcNS_11char_traitsIcEENS0_IcEEEEE10deallocateB8ue170006EPS5_m, symObjAddr: 0x4770, symBinAddr: 0x100006A40, symSize: 0x50 }
  - { offsetInCU: 0x108F0, offset: 0x1A151, size: 0x8, addend: 0x0, symName: __ZNSt3__117__compressed_pairIPNS_12basic_stringIcNS_11char_traitsIcEENS_9allocatorIcEEEENS4_IS6_EEE6secondB8ue170006Ev, symObjAddr: 0x47C0, symBinAddr: 0x100006A90, symSize: 0x20 }
  - { offsetInCU: 0x10916, offset: 0x1A177, size: 0x8, addend: 0x0, symName: __ZNSt3__122__compressed_pair_elemINS_9allocatorINS_12basic_stringIcNS_11char_traitsIcEENS1_IcEEEEEELi1ELb1EE5__getB8ue170006Ev, symObjAddr: 0x47E0, symBinAddr: 0x100006AB0, symSize: 0x10 }
  - { offsetInCU: 0x1093C, offset: 0x1A19D, size: 0x8, addend: 0x0, symName: __ZNKSt3__16vectorINS_12basic_stringIcNS_11char_traitsIcEENS_9allocatorIcEEEENS4_IS6_EEE9__end_capB8ue170006Ev, symObjAddr: 0x47F0, symBinAddr: 0x100006AC0, symSize: 0x20 }
  - { offsetInCU: 0x10962, offset: 0x1A1C3, size: 0x8, addend: 0x0, symName: __ZNKSt3__117__compressed_pairIPNS_12basic_stringIcNS_11char_traitsIcEENS_9allocatorIcEEEENS4_IS6_EEE5firstB8ue170006Ev, symObjAddr: 0x4810, symBinAddr: 0x100006AE0, symSize: 0x20 }
  - { offsetInCU: 0x10988, offset: 0x1A1E9, size: 0x8, addend: 0x0, symName: __ZNKSt3__122__compressed_pair_elemIPNS_12basic_stringIcNS_11char_traitsIcEENS_9allocatorIcEEEELi0ELb0EE5__getB8ue170006Ev, symObjAddr: 0x4830, symBinAddr: 0x100006B00, symSize: 0x10 }
  - { offsetInCU: 0x109AE, offset: 0x1A20F, size: 0x8, addend: 0x0, symName: __ZNSt3__19basic_iosIcNS_11char_traitsIcEEEC2B8ue170006Ev, symObjAddr: 0x4840, symBinAddr: 0x100006B10, symSize: 0x40 }
  - { offsetInCU: 0x109D8, offset: 0x1A239, size: 0x8, addend: 0x0, symName: __ZNSt3__113basic_istreamIcNS_11char_traitsIcEEEC2B8ue170006EPNS_15basic_streambufIcS2_EE, symObjAddr: 0x4880, symBinAddr: 0x100006B50, symSize: 0x50 }
  - { offsetInCU: 0x10A1D, offset: 0x1A27E, size: 0x8, addend: 0x0, symName: __ZNSt3__18ios_baseC2B8ue170006Ev, symObjAddr: 0x48D0, symBinAddr: 0x100006BA0, symSize: 0x20 }
  - { offsetInCU: 0x10A47, offset: 0x1A2A8, size: 0x8, addend: 0x0, symName: __ZNSt3__19basic_iosIcNS_11char_traitsIcEEE4initB8ue170006EPNS_15basic_streambufIcS2_EE, symObjAddr: 0x48F0, symBinAddr: 0x100006BC0, symSize: 0x50 }
  - { offsetInCU: 0x10A7E, offset: 0x1A2DF, size: 0x8, addend: 0x0, symName: __ZNKSt3__113basic_filebufIcNS_11char_traitsIcEEE7is_openEv, symObjAddr: 0x4940, symBinAddr: 0x100006C10, symSize: 0x20 }
  - { offsetInCU: 0x10AC4, offset: 0x1A325, size: 0x8, addend: 0x0, symName: __ZNKSt3__19basic_iosIcNS_11char_traitsIcEEE4failB8ue170006Ev, symObjAddr: 0x4F80, symBinAddr: 0x100006C30, symSize: 0x20 }
  - { offsetInCU: 0x10AEA, offset: 0x1A34B, size: 0x8, addend: 0x0, symName: __ZNKSt3__18ios_base4failB8ue170006Ev, symObjAddr: 0x4FA0, symBinAddr: 0x100006C50, symSize: 0x20 }
  - { offsetInCU: 0x10B12, offset: 0x1A373, size: 0x8, addend: 0x0, symName: __ZNSt3__115basic_stringbufIcNS_11char_traitsIcEENS_9allocatorIcEEEC1B8ue170006ERKNS_12basic_stringIcS2_S4_EEj, symObjAddr: 0x4FC0, symBinAddr: 0x100006C70, symSize: 0x30 }
  - { offsetInCU: 0x10B5A, offset: 0x1A3BB, size: 0x8, addend: 0x0, symName: __ZNSt3__115basic_stringbufIcNS_11char_traitsIcEENS_9allocatorIcEEEC2B8ue170006ERKNS_12basic_stringIcS2_S4_EEj, symObjAddr: 0x4FF0, symBinAddr: 0x100006CA0, symSize: 0xA0 }
  - { offsetInCU: 0x10BA2, offset: 0x1A403, size: 0x8, addend: 0x0, symName: __ZNKSt3__112basic_stringIcNS_11char_traitsIcEENS_9allocatorIcEEE13get_allocatorB8ue170006Ev, symObjAddr: 0x5090, symBinAddr: 0x100006D40, symSize: 0x20 }
  - { offsetInCU: 0x10BC8, offset: 0x1A429, size: 0x8, addend: 0x0, symName: __ZNSt3__112basic_stringIcNS_11char_traitsIcEENS_9allocatorIcEEEC1B8ue170006ERKS4_, symObjAddr: 0x50B0, symBinAddr: 0x100006D60, symSize: 0x30 }
  - { offsetInCU: 0x10C01, offset: 0x1A462, size: 0x8, addend: 0x0, symName: __ZNSt3__112basic_stringIcNS_11char_traitsIcEENS_9allocatorIcEEEC2B8ue170006ERKS4_, symObjAddr: 0x50E0, symBinAddr: 0x100006D90, symSize: 0x50 }
  - { offsetInCU: 0x10C3A, offset: 0x1A49B, size: 0x8, addend: 0x0, symName: __ZNSt3__117__compressed_pairINS_12basic_stringIcNS_11char_traitsIcEENS_9allocatorIcEEE5__repES5_EC1B8ue170006INS_18__default_init_tagERKS5_EEOT_OT0_, symObjAddr: 0x5130, symBinAddr: 0x100006DE0, symSize: 0x30 }
  - { offsetInCU: 0x10C92, offset: 0x1A4F3, size: 0x8, addend: 0x0, symName: __ZNSt3__117__compressed_pairINS_12basic_stringIcNS_11char_traitsIcEENS_9allocatorIcEEE5__repES5_EC2B8ue170006INS_18__default_init_tagERKS5_EEOT_OT0_, symObjAddr: 0x5160, symBinAddr: 0x100006E10, symSize: 0x40 }
  - { offsetInCU: 0x10CEA, offset: 0x1A54B, size: 0x8, addend: 0x0, symName: __ZNSt3__122__compressed_pair_elemINS_9allocatorIcEELi1ELb1EEC2B8ue170006IRKS2_vEEOT_, symObjAddr: 0x51A0, symBinAddr: 0x100006E50, symSize: 0x10 }
  - { offsetInCU: 0x10D2C, offset: 0x1A58D, size: 0x8, addend: 0x0, symName: __ZNSt3__114numeric_limitsIlE3maxB8ue170006Ev, symObjAddr: 0x51B0, symBinAddr: 0x100006E60, symSize: 0x10 }
  - { offsetInCU: 0x10D40, offset: 0x1A5A1, size: 0x8, addend: 0x0, symName: __ZNSt3__115basic_streambufIcNS_11char_traitsIcEEE5sgetcB8ue170006Ev, symObjAddr: 0x51C0, symBinAddr: 0x100006E70, symSize: 0x50 }
  - { offsetInCU: 0x10D66, offset: 0x1A5C7, size: 0x8, addend: 0x0, symName: __ZNKSt3__15ctypeIcE2isB8ue170006Ejc, symObjAddr: 0x5210, symBinAddr: 0x100006EC0, symSize: 0x70 }
  - { offsetInCU: 0x10DAA, offset: 0x1A60B, size: 0x8, addend: 0x0, symName: __ZNSt3__123__libcpp_numeric_limitsIlLb1EE3maxB8ue170006Ev, symObjAddr: 0x5280, symBinAddr: 0x100006F30, symSize: 0x10 }
  - { offsetInCU: 0x10DBD, offset: 0x1A61E, size: 0x8, addend: 0x0, symName: __Z7isasciii, symObjAddr: 0x5290, symBinAddr: 0x100006F40, symSize: 0x20 }
  - { offsetInCU: 0x10DEA, offset: 0x1A64B, size: 0x8, addend: 0x0, symName: __ZNSt3__112basic_stringIcNS_11char_traitsIcEENS_9allocatorIcEEE13__get_pointerB8ue170006Ev, symObjAddr: 0x52B0, symBinAddr: 0x100006F60, symSize: 0x50 }
  - { offsetInCU: 0x10E10, offset: 0x1A671, size: 0x8, addend: 0x0, symName: __ZNSt3__19allocatorIcEC1B8ue170006Ev, symObjAddr: 0x5300, symBinAddr: 0x100006FB0, symSize: 0x20 }
  - { offsetInCU: 0x10E3A, offset: 0x1A69B, size: 0x8, addend: 0x0, symName: __ZNSt3__16vectorINS_12basic_stringIcNS_11char_traitsIcEENS_9allocatorIcEEEENS4_IS6_EEE9__end_capB8ue170006Ev, symObjAddr: 0x5320, symBinAddr: 0x100006FD0, symSize: 0x20 }
  - { offsetInCU: 0x10E60, offset: 0x1A6C1, size: 0x8, addend: 0x0, symName: __ZNSt3__16vectorINS_12basic_stringIcNS_11char_traitsIcEENS_9allocatorIcEEEENS4_IS6_EEE22__construct_one_at_endB8ue170006IJRKS6_EEEvDpOT_, symObjAddr: 0x5340, symBinAddr: 0x100006FF0, symSize: 0x90 }
  - { offsetInCU: 0x10EAF, offset: 0x1A710, size: 0x8, addend: 0x0, symName: __ZNSt3__16vectorINS_12basic_stringIcNS_11char_traitsIcEENS_9allocatorIcEEEENS4_IS6_EEE21__push_back_slow_pathIRKS6_EEvOT_, symObjAddr: 0x53D0, symBinAddr: 0x100007080, symSize: 0xD0 }
  - { offsetInCU: 0x10F0D, offset: 0x1A76E, size: 0x8, addend: 0x0, symName: __ZNSt3__117__compressed_pairIPNS_12basic_stringIcNS_11char_traitsIcEENS_9allocatorIcEEEENS4_IS6_EEE5firstB8ue170006Ev, symObjAddr: 0x54A0, symBinAddr: 0x100007150, symSize: 0x20 }
  - { offsetInCU: 0x10F33, offset: 0x1A794, size: 0x8, addend: 0x0, symName: __ZNSt3__122__compressed_pair_elemIPNS_12basic_stringIcNS_11char_traitsIcEENS_9allocatorIcEEEELi0ELb0EE5__getB8ue170006Ev, symObjAddr: 0x54C0, symBinAddr: 0x100007170, symSize: 0x10 }
  - { offsetInCU: 0x10F72, offset: 0x1A7D3, size: 0x8, addend: 0x0, symName: __ZNSt3__16vectorINS_12basic_stringIcNS_11char_traitsIcEENS_9allocatorIcEEEENS4_IS6_EEE21_ConstructTransactionC1B8ue170006ERS8_m, symObjAddr: 0x54D0, symBinAddr: 0x100007180, symSize: 0x30 }
  - { offsetInCU: 0x10FBA, offset: 0x1A81B, size: 0x8, addend: 0x0, symName: __ZNSt3__116allocator_traitsINS_9allocatorINS_12basic_stringIcNS_11char_traitsIcEENS1_IcEEEEEEE9constructB8ue170006IS6_JRKS6_EvEEvRS7_PT_DpOT0_, symObjAddr: 0x5500, symBinAddr: 0x1000071B0, symSize: 0x30 }
  - { offsetInCU: 0x11011, offset: 0x1A872, size: 0x8, addend: 0x0, symName: __ZNSt3__16vectorINS_12basic_stringIcNS_11char_traitsIcEENS_9allocatorIcEEEENS4_IS6_EEE21_ConstructTransactionD1B8ue170006Ev, symObjAddr: 0x5530, symBinAddr: 0x1000071E0, symSize: 0x20 }
  - { offsetInCU: 0x1103B, offset: 0x1A89C, size: 0x8, addend: 0x0, symName: __ZNSt3__16vectorINS_12basic_stringIcNS_11char_traitsIcEENS_9allocatorIcEEEENS4_IS6_EEE21_ConstructTransactionC2B8ue170006ERS8_m, symObjAddr: 0x5550, symBinAddr: 0x100007200, symSize: 0x40 }
  - { offsetInCU: 0x11083, offset: 0x1A8E4, size: 0x8, addend: 0x0, symName: __ZNSt3__19allocatorINS_12basic_stringIcNS_11char_traitsIcEENS0_IcEEEEE9constructB8ue170006IS5_JRKS5_EEEvPT_DpOT0_, symObjAddr: 0x5590, symBinAddr: 0x100007240, symSize: 0x30 }
  - { offsetInCU: 0x110D9, offset: 0x1A93A, size: 0x8, addend: 0x0, symName: __ZNSt3__16vectorINS_12basic_stringIcNS_11char_traitsIcEENS_9allocatorIcEEEENS4_IS6_EEE21_ConstructTransactionD2B8ue170006Ev, symObjAddr: 0x55C0, symBinAddr: 0x100007270, symSize: 0x20 }
  - { offsetInCU: 0x11103, offset: 0x1A964, size: 0x8, addend: 0x0, symName: __ZNKSt3__16vectorINS_12basic_stringIcNS_11char_traitsIcEENS_9allocatorIcEEEENS4_IS6_EEE11__recommendB8ue170006Em, symObjAddr: 0x55E0, symBinAddr: 0x100007290, symSize: 0xA0 }
  - { offsetInCU: 0x11158, offset: 0x1A9B9, size: 0x8, addend: 0x0, symName: __ZNSt3__114__split_bufferINS_12basic_stringIcNS_11char_traitsIcEENS_9allocatorIcEEEERNS4_IS6_EEEC1EmmS8_, symObjAddr: 0x5680, symBinAddr: 0x100007330, symSize: 0x40 }
  - { offsetInCU: 0x111AE, offset: 0x1AA0F, size: 0x8, addend: 0x0, symName: __ZNSt3__114__split_bufferINS_12basic_stringIcNS_11char_traitsIcEENS_9allocatorIcEEEERNS4_IS6_EEED1Ev, symObjAddr: 0x57E0, symBinAddr: 0x100007490, symSize: 0x20 }
  - { offsetInCU: 0x111DA, offset: 0x1AA3B, size: 0x8, addend: 0x0, symName: __ZNKSt3__16vectorINS_12basic_stringIcNS_11char_traitsIcEENS_9allocatorIcEEEENS4_IS6_EEE8max_sizeEv, symObjAddr: 0x5800, symBinAddr: 0x1000074B0, symSize: 0x60 }
  - { offsetInCU: 0x11202, offset: 0x1AA63, size: 0x8, addend: 0x0, symName: __ZNKSt3__16vectorINS_12basic_stringIcNS_11char_traitsIcEENS_9allocatorIcEEEENS4_IS6_EEE20__throw_length_errorB8ue170006Ev, symObjAddr: 0x5860, symBinAddr: 0x100007510, symSize: 0x20 }
  - { offsetInCU: 0x11232, offset: 0x1AA93, size: 0x8, addend: 0x0, symName: __ZNSt3__116allocator_traitsINS_9allocatorINS_12basic_stringIcNS_11char_traitsIcEENS1_IcEEEEEEE8max_sizeB8ue170006IS7_vEEmRKS7_, symObjAddr: 0x58E0, symBinAddr: 0x100007560, symSize: 0x20 }
  - { offsetInCU: 0x11260, offset: 0x1AAC1, size: 0x8, addend: 0x0, symName: __ZNKSt3__16vectorINS_12basic_stringIcNS_11char_traitsIcEENS_9allocatorIcEEEENS4_IS6_EEE7__allocB8ue170006Ev, symObjAddr: 0x5900, symBinAddr: 0x100007580, symSize: 0x20 }
  - { offsetInCU: 0x11290, offset: 0x1AAF1, size: 0x8, addend: 0x0, symName: __ZNKSt3__19allocatorINS_12basic_stringIcNS_11char_traitsIcEENS0_IcEEEEE8max_sizeB8ue170006Ev, symObjAddr: 0x59A0, symBinAddr: 0x1000075A0, symSize: 0x20 }
  - { offsetInCU: 0x112B6, offset: 0x1AB17, size: 0x8, addend: 0x0, symName: __ZNKSt3__117__compressed_pairIPNS_12basic_stringIcNS_11char_traitsIcEENS_9allocatorIcEEEENS4_IS6_EEE6secondB8ue170006Ev, symObjAddr: 0x59C0, symBinAddr: 0x1000075C0, symSize: 0x20 }
  - { offsetInCU: 0x112DC, offset: 0x1AB3D, size: 0x8, addend: 0x0, symName: __ZNKSt3__122__compressed_pair_elemINS_9allocatorINS_12basic_stringIcNS_11char_traitsIcEENS1_IcEEEEEELi1ELb1EE5__getB8ue170006Ev, symObjAddr: 0x59E0, symBinAddr: 0x1000075E0, symSize: 0x10 }
  - { offsetInCU: 0x11302, offset: 0x1AB63, size: 0x8, addend: 0x0, symName: __ZNSt12length_errorC1B8ue170006EPKc, symObjAddr: 0x5A60, symBinAddr: 0x100007660, symSize: 0x30 }
  - { offsetInCU: 0x1133A, offset: 0x1AB9B, size: 0x8, addend: 0x0, symName: __ZNSt12length_errorC2B8ue170006EPKc, symObjAddr: 0x5A90, symBinAddr: 0x100007690, symSize: 0x40 }
  - { offsetInCU: 0x11372, offset: 0x1ABD3, size: 0x8, addend: 0x0, symName: __ZNSt3__114__split_bufferINS_12basic_stringIcNS_11char_traitsIcEENS_9allocatorIcEEEERNS4_IS6_EEEC2EmmS8_, symObjAddr: 0x5B20, symBinAddr: 0x100007720, symSize: 0xC0 }
  - { offsetInCU: 0x113E5, offset: 0x1AC46, size: 0x8, addend: 0x0, symName: __ZNSt3__117__compressed_pairIPNS_12basic_stringIcNS_11char_traitsIcEENS_9allocatorIcEEEERNS4_IS6_EEEC1B8ue170006IDnS9_EEOT_OT0_, symObjAddr: 0x5BE0, symBinAddr: 0x1000077E0, symSize: 0x30 }
  - { offsetInCU: 0x1143D, offset: 0x1AC9E, size: 0x8, addend: 0x0, symName: __ZNSt3__114__split_bufferINS_12basic_stringIcNS_11char_traitsIcEENS_9allocatorIcEEEERNS4_IS6_EEE7__allocB8ue170006Ev, symObjAddr: 0x5C50, symBinAddr: 0x100007850, symSize: 0x20 }
  - { offsetInCU: 0x11463, offset: 0x1ACC4, size: 0x8, addend: 0x0, symName: __ZNSt3__114__split_bufferINS_12basic_stringIcNS_11char_traitsIcEENS_9allocatorIcEEEERNS4_IS6_EEE9__end_capB8ue170006Ev, symObjAddr: 0x5C70, symBinAddr: 0x100007870, symSize: 0x20 }
  - { offsetInCU: 0x11489, offset: 0x1ACEA, size: 0x8, addend: 0x0, symName: __ZNSt3__117__compressed_pairIPNS_12basic_stringIcNS_11char_traitsIcEENS_9allocatorIcEEEERNS4_IS6_EEEC2B8ue170006IDnS9_EEOT_OT0_, symObjAddr: 0x5C90, symBinAddr: 0x100007890, symSize: 0x40 }
  - { offsetInCU: 0x114E1, offset: 0x1AD42, size: 0x8, addend: 0x0, symName: __ZNSt3__122__compressed_pair_elemIRNS_9allocatorINS_12basic_stringIcNS_11char_traitsIcEENS1_IcEEEEEELi1ELb0EEC2B8ue170006IS8_vEEOT_, symObjAddr: 0x5CD0, symBinAddr: 0x1000078D0, symSize: 0x20 }
  - { offsetInCU: 0x11523, offset: 0x1AD84, size: 0x8, addend: 0x0, symName: __ZNSt3__19allocatorINS_12basic_stringIcNS_11char_traitsIcEENS0_IcEEEEE8allocateB8ue170006Em, symObjAddr: 0x5CF0, symBinAddr: 0x1000078F0, symSize: 0x50 }
  - { offsetInCU: 0x11557, offset: 0x1ADB8, size: 0x8, addend: 0x0, symName: __ZNSt3__117__compressed_pairIPNS_12basic_stringIcNS_11char_traitsIcEENS_9allocatorIcEEEERNS4_IS6_EEE6secondB8ue170006Ev, symObjAddr: 0x5DC0, symBinAddr: 0x1000079C0, symSize: 0x20 }
  - { offsetInCU: 0x1157D, offset: 0x1ADDE, size: 0x8, addend: 0x0, symName: __ZNSt3__122__compressed_pair_elemIRNS_9allocatorINS_12basic_stringIcNS_11char_traitsIcEENS1_IcEEEEEELi1ELb0EE5__getB8ue170006Ev, symObjAddr: 0x5DE0, symBinAddr: 0x1000079E0, symSize: 0x20 }
  - { offsetInCU: 0x115A3, offset: 0x1AE04, size: 0x8, addend: 0x0, symName: __ZNSt3__117__compressed_pairIPNS_12basic_stringIcNS_11char_traitsIcEENS_9allocatorIcEEEERNS4_IS6_EEE5firstB8ue170006Ev, symObjAddr: 0x5E00, symBinAddr: 0x100007A00, symSize: 0x20 }
  - { offsetInCU: 0x115C9, offset: 0x1AE2A, size: 0x8, addend: 0x0, symName: __ZNSt3__116reverse_iteratorIPNS_12basic_stringIcNS_11char_traitsIcEENS_9allocatorIcEEEEEC1B8ue170006ES7_, symObjAddr: 0x5FA0, symBinAddr: 0x100007BA0, symSize: 0x30 }
  - { offsetInCU: 0x11601, offset: 0x1AE62, size: 0x8, addend: 0x0, symName: __ZNKSt3__116reverse_iteratorIPNS_12basic_stringIcNS_11char_traitsIcEENS_9allocatorIcEEEEE4baseB8ue170006Ev, symObjAddr: 0x5FD0, symBinAddr: 0x100007BD0, symSize: 0x20 }
  - { offsetInCU: 0x11627, offset: 0x1AE88, size: 0x8, addend: 0x0, symName: __ZNKSt3__16vectorINS_12basic_stringIcNS_11char_traitsIcEENS_9allocatorIcEEEENS4_IS6_EEE14__annotate_newB8ue170006Em, symObjAddr: 0x6030, symBinAddr: 0x100007C30, symSize: 0xA0 }
  - { offsetInCU: 0x1165C, offset: 0x1AEBD, size: 0x8, addend: 0x0, symName: __ZNSt3__129_AllocatorDestroyRangeReverseINS_9allocatorINS_12basic_stringIcNS_11char_traitsIcEENS1_IcEEEEEENS_16reverse_iteratorIPS6_EEEC1B8ue170006ERS7_RSA_SD_, symObjAddr: 0x6130, symBinAddr: 0x100007D30, symSize: 0x40 }
  - { offsetInCU: 0x116B8, offset: 0x1AF19, size: 0x8, addend: 0x0, symName: __ZNSt3__116allocator_traitsINS_9allocatorINS_12basic_stringIcNS_11char_traitsIcEENS1_IcEEEEEEE9constructB8ue170006IS6_JS6_EvEEvRS7_PT_DpOT0_, symObjAddr: 0x61B0, symBinAddr: 0x100007DB0, symSize: 0x30 }
  - { offsetInCU: 0x1170F, offset: 0x1AF70, size: 0x8, addend: 0x0, symName: __ZNKSt3__116reverse_iteratorIPNS_12basic_stringIcNS_11char_traitsIcEENS_9allocatorIcEEEEEdeB8ue170006Ev, symObjAddr: 0x6200, symBinAddr: 0x100007E00, symSize: 0x30 }
  - { offsetInCU: 0x11743, offset: 0x1AFA4, size: 0x8, addend: 0x0, symName: __ZNSt3__116reverse_iteratorIPNS_12basic_stringIcNS_11char_traitsIcEENS_9allocatorIcEEEEEppB8ue170006Ev, symObjAddr: 0x6230, symBinAddr: 0x100007E30, symSize: 0x20 }
  - { offsetInCU: 0x11769, offset: 0x1AFCA, size: 0x8, addend: 0x0, symName: __ZNSt3__128__exception_guard_exceptionsINS_29_AllocatorDestroyRangeReverseINS_9allocatorINS_12basic_stringIcNS_11char_traitsIcEENS2_IcEEEEEENS_16reverse_iteratorIPS7_EEEEE10__completeB8ue170006Ev, symObjAddr: 0x6250, symBinAddr: 0x100007E50, symSize: 0x20 }
  - { offsetInCU: 0x1178F, offset: 0x1AFF0, size: 0x8, addend: 0x0, symName: __ZNSt3__128__exception_guard_exceptionsINS_29_AllocatorDestroyRangeReverseINS_9allocatorINS_12basic_stringIcNS_11char_traitsIcEENS2_IcEEEEEENS_16reverse_iteratorIPS7_EEEEED1B8ue170006Ev, symObjAddr: 0x6270, symBinAddr: 0x100007E70, symSize: 0x20 }
  - { offsetInCU: 0x117B9, offset: 0x1B01A, size: 0x8, addend: 0x0, symName: __ZNSt3__128__exception_guard_exceptionsINS_29_AllocatorDestroyRangeReverseINS_9allocatorINS_12basic_stringIcNS_11char_traitsIcEENS2_IcEEEEEENS_16reverse_iteratorIPS7_EEEEEC1B8ue170006ESC_, symObjAddr: 0x6290, symBinAddr: 0x100007E90, symSize: 0x40 }
  - { offsetInCU: 0x117F1, offset: 0x1B052, size: 0x8, addend: 0x0, symName: __ZNSt3__128__exception_guard_exceptionsINS_29_AllocatorDestroyRangeReverseINS_9allocatorINS_12basic_stringIcNS_11char_traitsIcEENS2_IcEEEEEENS_16reverse_iteratorIPS7_EEEEEC2B8ue170006ESC_, symObjAddr: 0x62D0, symBinAddr: 0x100007ED0, symSize: 0x30 }
  - { offsetInCU: 0x11829, offset: 0x1B08A, size: 0x8, addend: 0x0, symName: __ZNSt3__129_AllocatorDestroyRangeReverseINS_9allocatorINS_12basic_stringIcNS_11char_traitsIcEENS1_IcEEEEEENS_16reverse_iteratorIPS6_EEEC2B8ue170006ERS7_RSA_SD_, symObjAddr: 0x6300, symBinAddr: 0x100007F00, symSize: 0x40 }
  - { offsetInCU: 0x11880, offset: 0x1B0E1, size: 0x8, addend: 0x0, symName: __ZNSt3__19allocatorINS_12basic_stringIcNS_11char_traitsIcEENS0_IcEEEEE9constructB8ue170006IS5_JS5_EEEvPT_DpOT0_, symObjAddr: 0x6340, symBinAddr: 0x100007F40, symSize: 0x30 }
  - { offsetInCU: 0x118D6, offset: 0x1B137, size: 0x8, addend: 0x0, symName: __ZNSt3__112basic_stringIcNS_11char_traitsIcEENS_9allocatorIcEEEC1B8ue170006EOS5_, symObjAddr: 0x6370, symBinAddr: 0x100007F70, symSize: 0x30 }
  - { offsetInCU: 0x1190F, offset: 0x1B170, size: 0x8, addend: 0x0, symName: __ZNSt3__112basic_stringIcNS_11char_traitsIcEENS_9allocatorIcEEEC2B8ue170006EOS5_, symObjAddr: 0x63A0, symBinAddr: 0x100007FA0, symSize: 0x40 }
  - { offsetInCU: 0x1194D, offset: 0x1B1AE, size: 0x8, addend: 0x0, symName: __ZNSt3__119__to_address_helperINS_16reverse_iteratorIPNS_12basic_stringIcNS_11char_traitsIcEENS_9allocatorIcEEEEEEvE6__callB8ue170006ERKS9_, symObjAddr: 0x63E0, symBinAddr: 0x100007FE0, symSize: 0x40 }
  - { offsetInCU: 0x11970, offset: 0x1B1D1, size: 0x8, addend: 0x0, symName: __ZNKSt3__116reverse_iteratorIPNS_12basic_stringIcNS_11char_traitsIcEENS_9allocatorIcEEEEEptB8ue170006Ev, symObjAddr: 0x6420, symBinAddr: 0x100008020, symSize: 0x20 }
  - { offsetInCU: 0x11996, offset: 0x1B1F7, size: 0x8, addend: 0x0, symName: __ZNSt3__128__exception_guard_exceptionsINS_29_AllocatorDestroyRangeReverseINS_9allocatorINS_12basic_stringIcNS_11char_traitsIcEENS2_IcEEEEEENS_16reverse_iteratorIPS7_EEEEED2B8ue170006Ev, symObjAddr: 0x6440, symBinAddr: 0x100008040, symSize: 0x40 }
  - { offsetInCU: 0x119C0, offset: 0x1B221, size: 0x8, addend: 0x0, symName: __ZNKSt3__129_AllocatorDestroyRangeReverseINS_9allocatorINS_12basic_stringIcNS_11char_traitsIcEENS1_IcEEEEEENS_16reverse_iteratorIPS6_EEEclB8ue170006Ev, symObjAddr: 0x6480, symBinAddr: 0x100008080, symSize: 0xF0 }
  - { offsetInCU: 0x119E7, offset: 0x1B248, size: 0x8, addend: 0x0, symName: __ZNSt3__116reverse_iteratorINS0_IPNS_12basic_stringIcNS_11char_traitsIcEENS_9allocatorIcEEEEEEEC1B8ue170006ES8_, symObjAddr: 0x65E0, symBinAddr: 0x1000081E0, symSize: 0x30 }
  - { offsetInCU: 0x11A1F, offset: 0x1B280, size: 0x8, addend: 0x0, symName: __ZNSt3__116reverse_iteratorINS0_IPNS_12basic_stringIcNS_11char_traitsIcEENS_9allocatorIcEEEEEEEppB8ue170006Ev, symObjAddr: 0x6680, symBinAddr: 0x100008280, symSize: 0x30 }
  - { offsetInCU: 0x11A45, offset: 0x1B2A6, size: 0x8, addend: 0x0, symName: __ZNKSt3__116reverse_iteratorINS0_IPNS_12basic_stringIcNS_11char_traitsIcEENS_9allocatorIcEEEEEEE4baseB8ue170006Ev, symObjAddr: 0x66B0, symBinAddr: 0x1000082B0, symSize: 0x20 }
  - { offsetInCU: 0x11A70, offset: 0x1B2D1, size: 0x8, addend: 0x0, symName: __ZNSt3__119__to_address_helperINS_16reverse_iteratorINS1_IPNS_12basic_stringIcNS_11char_traitsIcEENS_9allocatorIcEEEEEEEEvE6__callB8ue170006ERKSA_, symObjAddr: 0x66D0, symBinAddr: 0x1000082D0, symSize: 0x40 }
  - { offsetInCU: 0x11A93, offset: 0x1B2F4, size: 0x8, addend: 0x0, symName: __ZNKSt3__116reverse_iteratorINS0_IPNS_12basic_stringIcNS_11char_traitsIcEENS_9allocatorIcEEEEEEEptB8ue170006Ev, symObjAddr: 0x6710, symBinAddr: 0x100008310, symSize: 0x20 }
  - { offsetInCU: 0x11AB9, offset: 0x1B31A, size: 0x8, addend: 0x0, symName: __ZNKSt3__116reverse_iteratorINS0_IPNS_12basic_stringIcNS_11char_traitsIcEENS_9allocatorIcEEEEEEEdeB8ue170006Ev, symObjAddr: 0x6730, symBinAddr: 0x100008330, symSize: 0x40 }
  - { offsetInCU: 0x11AED, offset: 0x1B34E, size: 0x8, addend: 0x0, symName: __ZNSt3__116reverse_iteratorIPNS_12basic_stringIcNS_11char_traitsIcEENS_9allocatorIcEEEEEmmB8ue170006Ev, symObjAddr: 0x6770, symBinAddr: 0x100008370, symSize: 0x20 }
  - { offsetInCU: 0x11B13, offset: 0x1B374, size: 0x8, addend: 0x0, symName: __ZNSt3__116reverse_iteratorINS0_IPNS_12basic_stringIcNS_11char_traitsIcEENS_9allocatorIcEEEEEEEC2B8ue170006ES8_, symObjAddr: 0x6790, symBinAddr: 0x100008390, symSize: 0x40 }
  - { offsetInCU: 0x11B4B, offset: 0x1B3AC, size: 0x8, addend: 0x0, symName: __ZNSt3__116reverse_iteratorIPNS_12basic_stringIcNS_11char_traitsIcEENS_9allocatorIcEEEEEC2B8ue170006ES7_, symObjAddr: 0x67D0, symBinAddr: 0x1000083D0, symSize: 0x30 }
  - { offsetInCU: 0x11B83, offset: 0x1B3E4, size: 0x8, addend: 0x0, symName: __ZNSt3__114__split_bufferINS_12basic_stringIcNS_11char_traitsIcEENS_9allocatorIcEEEERNS4_IS6_EEED2Ev, symObjAddr: 0x6800, symBinAddr: 0x100008400, symSize: 0x70 }
  - { offsetInCU: 0x11BAF, offset: 0x1B410, size: 0x8, addend: 0x0, symName: __ZNSt3__114__split_bufferINS_12basic_stringIcNS_11char_traitsIcEENS_9allocatorIcEEEERNS4_IS6_EEE5clearB8ue170006Ev, symObjAddr: 0x6870, symBinAddr: 0x100008470, symSize: 0x20 }
  - { offsetInCU: 0x11BD5, offset: 0x1B436, size: 0x8, addend: 0x0, symName: __ZNKSt3__114__split_bufferINS_12basic_stringIcNS_11char_traitsIcEENS_9allocatorIcEEEERNS4_IS6_EEE8capacityB8ue170006Ev, symObjAddr: 0x6890, symBinAddr: 0x100008490, symSize: 0x40 }
  - { offsetInCU: 0x11BFB, offset: 0x1B45C, size: 0x8, addend: 0x0, symName: __ZNSt3__114__split_bufferINS_12basic_stringIcNS_11char_traitsIcEENS_9allocatorIcEEEERNS4_IS6_EEE17__destruct_at_endB8ue170006EPS6_, symObjAddr: 0x68D0, symBinAddr: 0x1000084D0, symSize: 0x30 }
  - { offsetInCU: 0x11C2F, offset: 0x1B490, size: 0x8, addend: 0x0, symName: __ZNSt3__114__split_bufferINS_12basic_stringIcNS_11char_traitsIcEENS_9allocatorIcEEEERNS4_IS6_EEE17__destruct_at_endB8ue170006EPS6_NS_17integral_constantIbLb0EEE, symObjAddr: 0x6900, symBinAddr: 0x100008500, symSize: 0x80 }
  - { offsetInCU: 0x11C6F, offset: 0x1B4D0, size: 0x8, addend: 0x0, symName: __ZNKSt3__114__split_bufferINS_12basic_stringIcNS_11char_traitsIcEENS_9allocatorIcEEEERNS4_IS6_EEE9__end_capB8ue170006Ev, symObjAddr: 0x6980, symBinAddr: 0x100008580, symSize: 0x20 }
  - { offsetInCU: 0x11C95, offset: 0x1B4F6, size: 0x8, addend: 0x0, symName: __ZNKSt3__117__compressed_pairIPNS_12basic_stringIcNS_11char_traitsIcEENS_9allocatorIcEEEERNS4_IS6_EEE5firstB8ue170006Ev, symObjAddr: 0x69A0, symBinAddr: 0x1000085A0, symSize: 0x20 }
  - { offsetInCU: 0x11CBB, offset: 0x1B51C, size: 0x8, addend: 0x0, symName: '__ZNSt3__16threadC2IZN14ConsoleManager10initializeEvE3$_1JEvEEOT_DpOT0_', symObjAddr: 0x69C0, symBinAddr: 0x1000085C0, symSize: 0x140 }
  - { offsetInCU: 0x11D33, offset: 0x1B594, size: 0x8, addend: 0x0, symName: '__ZNSt3__15tupleIJNS_10unique_ptrINS_15__thread_structENS_14default_deleteIS2_EEEEZN14ConsoleManager10initializeEvE3$_1EEC1B8ue170006IJS5_S7_ELi0EEEDpOT_', symObjAddr: 0x6B00, symBinAddr: 0x100008700, symSize: 0x30 }
  - { offsetInCU: 0x11E23, offset: 0x1B684, size: 0x8, addend: 0x0, symName: '__ZNSt3__110unique_ptrINS_5tupleIJNS0_INS_15__thread_structENS_14default_deleteIS2_EEEEZN14ConsoleManager10initializeEvE3$_1EEENS3_IS8_EEEC1B8ue170006ILb1EvEEPS8_', symObjAddr: 0x6B30, symBinAddr: 0x100008730, symSize: 0x30 }
  - { offsetInCU: 0x11E66, offset: 0x1B6C7, size: 0x8, addend: 0x0, symName: '__ZNKSt3__110unique_ptrINS_5tupleIJNS0_INS_15__thread_structENS_14default_deleteIS2_EEEEZN14ConsoleManager10initializeEvE3$_1EEENS3_IS8_EEE3getB8ue170006Ev', symObjAddr: 0x6C00, symBinAddr: 0x100008800, symSize: 0x20 }
  - { offsetInCU: 0x11E8C, offset: 0x1B6ED, size: 0x8, addend: 0x0, symName: '__ZNSt3__110unique_ptrINS_5tupleIJNS0_INS_15__thread_structENS_14default_deleteIS2_EEEEZN14ConsoleManager10initializeEvE3$_1EEENS3_IS8_EEE7releaseB8ue170006Ev', symObjAddr: 0x6C20, symBinAddr: 0x100008820, symSize: 0x40 }
  - { offsetInCU: 0x11EC1, offset: 0x1B722, size: 0x8, addend: 0x0, symName: '__ZNSt3__110unique_ptrINS_5tupleIJNS0_INS_15__thread_structENS_14default_deleteIS2_EEEEZN14ConsoleManager10initializeEvE3$_1EEENS3_IS8_EEED1B8ue170006Ev', symObjAddr: 0x6C60, symBinAddr: 0x100008860, symSize: 0x20 }
  - { offsetInCU: 0x11EEB, offset: 0x1B74C, size: 0x8, addend: 0x0, symName: '__ZNSt3__15tupleIJNS_10unique_ptrINS_15__thread_structENS_14default_deleteIS2_EEEEZN14ConsoleManager10initializeEvE3$_1EEC2B8ue170006IJS5_S7_ELi0EEEDpOT_', symObjAddr: 0x6C80, symBinAddr: 0x100008880, symSize: 0x30 }
  - { offsetInCU: 0x11F4A, offset: 0x1B7AB, size: 0x8, addend: 0x0, symName: '__ZNSt3__112__tuple_implINS_15__tuple_indicesIJLm0ELm1EEEEJNS_10unique_ptrINS_15__thread_structENS_14default_deleteIS4_EEEEZN14ConsoleManager10initializeEvE3$_1EEC1B8ue170006IJLm0ELm1EEJS7_S9_EJEJEJS7_S9_EEENS1_IJXspT_EEEENS_13__tuple_typesIJDpT0_EEENS1_IJXspT1_EEEENSD_IJDpT2_EEEDpOT3_', symObjAddr: 0x6CB0, symBinAddr: 0x1000088B0, symSize: 0x30 }
  - { offsetInCU: 0x12000, offset: 0x1B861, size: 0x8, addend: 0x0, symName: '__ZNSt3__112__tuple_implINS_15__tuple_indicesIJLm0ELm1EEEEJNS_10unique_ptrINS_15__thread_structENS_14default_deleteIS4_EEEEZN14ConsoleManager10initializeEvE3$_1EEC2B8ue170006IJLm0ELm1EEJS7_S9_EJEJEJS7_S9_EEENS1_IJXspT_EEEENS_13__tuple_typesIJDpT0_EEENS1_IJXspT1_EEEENSD_IJDpT2_EEEDpOT3_', symObjAddr: 0x6CE0, symBinAddr: 0x1000088E0, symSize: 0x40 }
  - { offsetInCU: 0x120B6, offset: 0x1B917, size: 0x8, addend: 0x0, symName: '__ZNSt3__112__tuple_leafILm1EZN14ConsoleManager10initializeEvE3$_1Lb1EEC2B8ue170006IS2_vEEOT_', symObjAddr: 0x6D20, symBinAddr: 0x100008920, symSize: 0x10 }
  - { offsetInCU: 0x120F9, offset: 0x1B95A, size: 0x8, addend: 0x0, symName: '__ZNSt3__110unique_ptrINS_5tupleIJNS0_INS_15__thread_structENS_14default_deleteIS2_EEEEZN14ConsoleManager10initializeEvE3$_1EEENS3_IS8_EEEC2B8ue170006ILb1EvEEPS8_', symObjAddr: 0x6D30, symBinAddr: 0x100008930, symSize: 0x40 }
  - { offsetInCU: 0x1213C, offset: 0x1B99D, size: 0x8, addend: 0x0, symName: '__ZNSt3__117__compressed_pairIPNS_5tupleIJNS_10unique_ptrINS_15__thread_structENS_14default_deleteIS3_EEEEZN14ConsoleManager10initializeEvE3$_1EEENS4_IS9_EEEC1B8ue170006IRSA_NS_16__value_init_tagEEEOT_OT0_', symObjAddr: 0x6D70, symBinAddr: 0x100008970, symSize: 0x30 }
  - { offsetInCU: 0x12194, offset: 0x1B9F5, size: 0x8, addend: 0x0, symName: '__ZNSt3__117__compressed_pairIPNS_5tupleIJNS_10unique_ptrINS_15__thread_structENS_14default_deleteIS3_EEEEZN14ConsoleManager10initializeEvE3$_1EEENS4_IS9_EEEC2B8ue170006IRSA_NS_16__value_init_tagEEEOT_OT0_', symObjAddr: 0x6DA0, symBinAddr: 0x1000089A0, symSize: 0x40 }
  - { offsetInCU: 0x121EC, offset: 0x1BA4D, size: 0x8, addend: 0x0, symName: '__ZNSt3__122__compressed_pair_elemIPNS_5tupleIJNS_10unique_ptrINS_15__thread_structENS_14default_deleteIS3_EEEEZN14ConsoleManager10initializeEvE3$_1EEELi0ELb0EEC2B8ue170006IRSA_vEEOT_', symObjAddr: 0x6DE0, symBinAddr: 0x1000089E0, symSize: 0x20 }
  - { offsetInCU: 0x1222E, offset: 0x1BA8F, size: 0x8, addend: 0x0, symName: '__ZNSt3__122__compressed_pair_elemINS_14default_deleteINS_5tupleIJNS_10unique_ptrINS_15__thread_structENS1_IS4_EEEEZN14ConsoleManager10initializeEvE3$_1EEEEELi1ELb1EEC2B8ue170006ENS_16__value_init_tagE', symObjAddr: 0x6E00, symBinAddr: 0x100008A00, symSize: 0x10 }
  - { offsetInCU: 0x12267, offset: 0x1BAC8, size: 0x8, addend: 0x0, symName: '__ZZN14ConsoleManager10initializeEvENK3$_1clEv', symObjAddr: 0x6EA0, symBinAddr: 0x100008AA0, symSize: 0x20 }
  - { offsetInCU: 0x12291, offset: 0x1BAF2, size: 0x8, addend: 0x0, symName: '__ZNSt3__112__tuple_leafILm1EZN14ConsoleManager10initializeEvE3$_1Lb1EE3getB8ue170006Ev', symObjAddr: 0x6EC0, symBinAddr: 0x100008AC0, symSize: 0x10 }
  - { offsetInCU: 0x122B7, offset: 0x1BB18, size: 0x8, addend: 0x0, symName: '__ZNKSt3__117__compressed_pairIPNS_5tupleIJNS_10unique_ptrINS_15__thread_structENS_14default_deleteIS3_EEEEZN14ConsoleManager10initializeEvE3$_1EEENS4_IS9_EEE5firstB8ue170006Ev', symObjAddr: 0x6ED0, symBinAddr: 0x100008AD0, symSize: 0x20 }
  - { offsetInCU: 0x122DD, offset: 0x1BB3E, size: 0x8, addend: 0x0, symName: '__ZNKSt3__122__compressed_pair_elemIPNS_5tupleIJNS_10unique_ptrINS_15__thread_structENS_14default_deleteIS3_EEEEZN14ConsoleManager10initializeEvE3$_1EEELi0ELb0EE5__getB8ue170006Ev', symObjAddr: 0x6EF0, symBinAddr: 0x100008AF0, symSize: 0x10 }
  - { offsetInCU: 0x12303, offset: 0x1BB64, size: 0x8, addend: 0x0, symName: '__ZNSt3__117__compressed_pairIPNS_5tupleIJNS_10unique_ptrINS_15__thread_structENS_14default_deleteIS3_EEEEZN14ConsoleManager10initializeEvE3$_1EEENS4_IS9_EEE5firstB8ue170006Ev', symObjAddr: 0x6F00, symBinAddr: 0x100008B00, symSize: 0x20 }
  - { offsetInCU: 0x12329, offset: 0x1BB8A, size: 0x8, addend: 0x0, symName: '__ZNSt3__122__compressed_pair_elemIPNS_5tupleIJNS_10unique_ptrINS_15__thread_structENS_14default_deleteIS3_EEEEZN14ConsoleManager10initializeEvE3$_1EEELi0ELb0EE5__getB8ue170006Ev', symObjAddr: 0x6F20, symBinAddr: 0x100008B20, symSize: 0x10 }
  - { offsetInCU: 0x1234F, offset: 0x1BBB0, size: 0x8, addend: 0x0, symName: '__ZNSt3__110unique_ptrINS_5tupleIJNS0_INS_15__thread_structENS_14default_deleteIS2_EEEEZN14ConsoleManager10initializeEvE3$_1EEENS3_IS8_EEED2B8ue170006Ev', symObjAddr: 0x6F30, symBinAddr: 0x100008B30, symSize: 0x20 }
  - { offsetInCU: 0x12379, offset: 0x1BBDA, size: 0x8, addend: 0x0, symName: '__ZNSt3__110unique_ptrINS_5tupleIJNS0_INS_15__thread_structENS_14default_deleteIS2_EEEEZN14ConsoleManager10initializeEvE3$_1EEENS3_IS8_EEE5resetB8ue170006EPS8_', symObjAddr: 0x6F50, symBinAddr: 0x100008B50, symSize: 0x70 }
  - { offsetInCU: 0x123BD, offset: 0x1BC1E, size: 0x8, addend: 0x0, symName: '__ZNSt3__117__compressed_pairIPNS_5tupleIJNS_10unique_ptrINS_15__thread_structENS_14default_deleteIS3_EEEEZN14ConsoleManager10initializeEvE3$_1EEENS4_IS9_EEE6secondB8ue170006Ev', symObjAddr: 0x6FC0, symBinAddr: 0x100008BC0, symSize: 0x20 }
  - { offsetInCU: 0x123E3, offset: 0x1BC44, size: 0x8, addend: 0x0, symName: '__ZNKSt3__114default_deleteINS_5tupleIJNS_10unique_ptrINS_15__thread_structENS0_IS3_EEEEZN14ConsoleManager10initializeEvE3$_1EEEEclB8ue170006EPS8_', symObjAddr: 0x6FE0, symBinAddr: 0x100008BE0, symSize: 0x40 }
  - { offsetInCU: 0x12417, offset: 0x1BC78, size: 0x8, addend: 0x0, symName: '__ZNSt3__122__compressed_pair_elemINS_14default_deleteINS_5tupleIJNS_10unique_ptrINS_15__thread_structENS1_IS4_EEEEZN14ConsoleManager10initializeEvE3$_1EEEEELi1ELb1EE5__getB8ue170006Ev', symObjAddr: 0x7020, symBinAddr: 0x100008C20, symSize: 0x10 }
  - { offsetInCU: 0x1243D, offset: 0x1BC9E, size: 0x8, addend: 0x0, symName: '__ZNSt3__15tupleIJNS_10unique_ptrINS_15__thread_structENS_14default_deleteIS2_EEEEZN14ConsoleManager10initializeEvE3$_1EED1Ev', symObjAddr: 0x7030, symBinAddr: 0x100008C30, symSize: 0x20 }
  - { offsetInCU: 0x1246A, offset: 0x1BCCB, size: 0x8, addend: 0x0, symName: '__ZNSt3__15tupleIJNS_10unique_ptrINS_15__thread_structENS_14default_deleteIS2_EEEEZN14ConsoleManager10initializeEvE3$_1EED2Ev', symObjAddr: 0x7050, symBinAddr: 0x100008C50, symSize: 0x20 }
  - { offsetInCU: 0x12497, offset: 0x1BCF8, size: 0x8, addend: 0x0, symName: '__ZNSt3__112__tuple_implINS_15__tuple_indicesIJLm0ELm1EEEEJNS_10unique_ptrINS_15__thread_structENS_14default_deleteIS4_EEEEZN14ConsoleManager10initializeEvE3$_1EED1Ev', symObjAddr: 0x7070, symBinAddr: 0x100008C70, symSize: 0x20 }
  - { offsetInCU: 0x124C4, offset: 0x1BD25, size: 0x8, addend: 0x0, symName: '__ZNSt3__112__tuple_implINS_15__tuple_indicesIJLm0ELm1EEEEJNS_10unique_ptrINS_15__thread_structENS_14default_deleteIS4_EEEEZN14ConsoleManager10initializeEvE3$_1EED2Ev', symObjAddr: 0x7090, symBinAddr: 0x100008C90, symSize: 0x20 }
  - { offsetInCU: 0x124F1, offset: 0x1BD52, size: 0x8, addend: 0x0, symName: __ZNSt3__16chrono8durationIxNS_5ratioILl1ELl1000EEEE4zeroB8ue170006Ev, symObjAddr: 0x70E0, symBinAddr: 0x100008CE0, symSize: 0x40 }
  - { offsetInCU: 0x12505, offset: 0x1BD66, size: 0x8, addend: 0x0, symName: __ZNSt3__16chrono8durationIxNS_5ratioILl1ELl1000000000EEEEppB8ue170006Ev, symObjAddr: 0x71B0, symBinAddr: 0x100008DB0, symSize: 0x20 }
  - { offsetInCU: 0x1252B, offset: 0x1BD8C, size: 0x8, addend: 0x0, symName: __ZNSt3__16chrono8durationIxNS_5ratioILl1ELl1000000000EEEE3maxB8ue170006Ev, symObjAddr: 0x71D0, symBinAddr: 0x100008DD0, symSize: 0x40 }
  - { offsetInCU: 0x12549, offset: 0x1BDAA, size: 0x8, addend: 0x0, symName: __ZNKSt3__16chrono13__duration_ltINS0_8durationIxNS_5ratioILl1ELl1000EEEEES5_EclB8ue170006ERKS5_S8_, symObjAddr: 0x7240, symBinAddr: 0x100008E40, symSize: 0x50 }
  - { offsetInCU: 0x1258D, offset: 0x1BDEE, size: 0x8, addend: 0x0, symName: __ZNKSt3__16chrono8durationIxNS_5ratioILl1ELl1000EEEE5countB8ue170006Ev, symObjAddr: 0x7290, symBinAddr: 0x100008E90, symSize: 0x20 }
  - { offsetInCU: 0x125B3, offset: 0x1BE14, size: 0x8, addend: 0x0, symName: __ZNSt3__16chrono15duration_valuesIxE4zeroB8ue170006Ev, symObjAddr: 0x72B0, symBinAddr: 0x100008EB0, symSize: 0x10 }
  - { offsetInCU: 0x125D1, offset: 0x1BE32, size: 0x8, addend: 0x0, symName: __ZNSt3__16chrono8durationIxNS_5ratioILl1ELl1000EEEEC1B8ue170006IxEERKT_PNS_9enable_ifIXaasr14is_convertibleIS8_xEE5valueooL_ZNS_17integral_constantIbLb0EE5valueEEntsr23treat_as_floating_pointIS6_EE5valueEvE4typeE, symObjAddr: 0x72C0, symBinAddr: 0x100008EC0, symSize: 0x30 }
  - { offsetInCU: 0x1261E, offset: 0x1BE7F, size: 0x8, addend: 0x0, symName: __ZNSt3__16chrono8durationIxNS_5ratioILl1ELl1000EEEEC2B8ue170006IxEERKT_PNS_9enable_ifIXaasr14is_convertibleIS8_xEE5valueooL_ZNS_17integral_constantIbLb0EE5valueEEntsr23treat_as_floating_pointIS6_EE5valueEvE4typeE, symObjAddr: 0x72F0, symBinAddr: 0x100008EF0, symSize: 0x20 }
  - { offsetInCU: 0x1266B, offset: 0x1BECC, size: 0x8, addend: 0x0, symName: __ZNSt3__16chrono8durationIeNS_5ratioILl1ELl1000EEEEC1B8ue170006IxS3_EERKNS1_IT_T0_EEPNS_9enable_ifIXaasr13__no_overflowIS7_S3_EE5valueooL_ZNS_17integral_constantIbLb1EE5valueEEaaeqsr13__no_overflowIS7_S3_E4typeE3denLi1Entsr23treat_as_floating_pointIS6_EE5valueEvE4typeE, symObjAddr: 0x7380, symBinAddr: 0x100008F80, symSize: 0x30 }
  - { offsetInCU: 0x126C2, offset: 0x1BF23, size: 0x8, addend: 0x0, symName: __ZNKSt3__16chrono8durationIeNS_5ratioILl1ELl1000EEEE5countB8ue170006Ev, symObjAddr: 0x73B0, symBinAddr: 0x100008FB0, symSize: 0x10 }
  - { offsetInCU: 0x126E8, offset: 0x1BF49, size: 0x8, addend: 0x0, symName: __ZNSt3__16chrono8durationIeNS_5ratioILl1ELl1000EEEEC1B8ue170006IeNS2_ILl1ELl1EEEEERKNS1_IT_T0_EEPNS_9enable_ifIXaasr13__no_overflowIS8_S3_EE5valueooL_ZNS_17integral_constantIbLb1EE5valueEEaaeqsr13__no_overflowIS8_S3_E4typeE3denLi1Entsr23treat_as_floating_pointIS7_EE5valueEvE4typeE, symObjAddr: 0x73C0, symBinAddr: 0x100008FC0, symSize: 0x30 }
  - { offsetInCU: 0x1273F, offset: 0x1BFA0, size: 0x8, addend: 0x0, symName: __ZNSt3__16chrono8durationIeNS_5ratioILl1ELl1000EEEEC2B8ue170006IxS3_EERKNS1_IT_T0_EEPNS_9enable_ifIXaasr13__no_overflowIS7_S3_EE5valueooL_ZNS_17integral_constantIbLb1EE5valueEEaaeqsr13__no_overflowIS7_S3_E4typeE3denLi1Entsr23treat_as_floating_pointIS6_EE5valueEvE4typeE, symObjAddr: 0x73F0, symBinAddr: 0x100008FF0, symSize: 0x40 }
  - { offsetInCU: 0x127A0, offset: 0x1C001, size: 0x8, addend: 0x0, symName: __ZNKSt3__16chrono15__duration_castINS0_8durationIxNS_5ratioILl1ELl1000EEEEENS2_IeS4_EENS3_ILl1ELl1EEELb1ELb1EEclB8ue170006ERKS5_, symObjAddr: 0x7460, symBinAddr: 0x100009060, symSize: 0x40 }
  - { offsetInCU: 0x127DE, offset: 0x1C03F, size: 0x8, addend: 0x0, symName: __ZNSt3__16chrono8durationIeNS_5ratioILl1ELl1000EEEEC1B8ue170006IeEERKT_PNS_9enable_ifIXaasr14is_convertibleIS8_eEE5valueooL_ZNS_17integral_constantIbLb1EE5valueEEntsr23treat_as_floating_pointIS6_EE5valueEvE4typeE, symObjAddr: 0x74A0, symBinAddr: 0x1000090A0, symSize: 0x30 }
  - { offsetInCU: 0x1282B, offset: 0x1C08C, size: 0x8, addend: 0x0, symName: __ZNSt3__16chrono8durationIeNS_5ratioILl1ELl1000EEEEC2B8ue170006IeEERKT_PNS_9enable_ifIXaasr14is_convertibleIS8_eEE5valueooL_ZNS_17integral_constantIbLb1EE5valueEEntsr23treat_as_floating_pointIS6_EE5valueEvE4typeE, symObjAddr: 0x74D0, symBinAddr: 0x1000090D0, symSize: 0x20 }
  - { offsetInCU: 0x12878, offset: 0x1C0D9, size: 0x8, addend: 0x0, symName: __ZNSt3__16chrono8durationIeNS_5ratioILl1ELl1000EEEEC2B8ue170006IeNS2_ILl1ELl1EEEEERKNS1_IT_T0_EEPNS_9enable_ifIXaasr13__no_overflowIS8_S3_EE5valueooL_ZNS_17integral_constantIbLb1EE5valueEEaaeqsr13__no_overflowIS8_S3_E4typeE3denLi1Entsr23treat_as_floating_pointIS7_EE5valueEvE4typeE, symObjAddr: 0x74F0, symBinAddr: 0x1000090F0, symSize: 0x40 }
  - { offsetInCU: 0x128CF, offset: 0x1C130, size: 0x8, addend: 0x0, symName: __ZNKSt3__16chrono8durationIeNS_5ratioILl1ELl1EEEE5countB8ue170006Ev, symObjAddr: 0x75A0, symBinAddr: 0x1000091A0, symSize: 0x10 }
  - { offsetInCU: 0x128F5, offset: 0x1C156, size: 0x8, addend: 0x0, symName: __ZNSt3__16chrono8durationIxNS_5ratioILl1ELl1000000000EEEEC1B8ue170006IxEERKT_PNS_9enable_ifIXaasr14is_convertibleIS8_xEE5valueooL_ZNS_17integral_constantIbLb0EE5valueEEntsr23treat_as_floating_pointIS6_EE5valueEvE4typeE, symObjAddr: 0x75F0, symBinAddr: 0x1000091F0, symSize: 0x30 }
  - { offsetInCU: 0x12942, offset: 0x1C1A3, size: 0x8, addend: 0x0, symName: __ZNSt3__16chrono8durationIxNS_5ratioILl1ELl1000000000EEEEC2B8ue170006IxEERKT_PNS_9enable_ifIXaasr14is_convertibleIS8_xEE5valueooL_ZNS_17integral_constantIbLb0EE5valueEEntsr23treat_as_floating_pointIS6_EE5valueEvE4typeE, symObjAddr: 0x7620, symBinAddr: 0x100009220, symSize: 0x20 }
  - { offsetInCU: 0x1298F, offset: 0x1C1F0, size: 0x8, addend: 0x0, symName: __ZNKSt3__16chrono8durationIxNS_5ratioILl1ELl1000000000EEEE5countB8ue170006Ev, symObjAddr: 0x76A0, symBinAddr: 0x1000092A0, symSize: 0x20 }
  - { offsetInCU: 0x129B5, offset: 0x1C216, size: 0x8, addend: 0x0, symName: __ZNSt3__16chrono8durationIxNS_5ratioILl1ELl1000000000EEEEC1B8ue170006IxNS2_ILl1ELl1000EEEEERKNS1_IT_T0_EEPNS_9enable_ifIXaasr13__no_overflowIS8_S3_EE5valueooL_ZNS_17integral_constantIbLb0EE5valueEEaaeqsr13__no_overflowIS8_S3_E4typeE3denLi1Entsr23treat_as_floating_pointIS7_EE5valueEvE4typeE, symObjAddr: 0x76C0, symBinAddr: 0x1000092C0, symSize: 0x30 }
  - { offsetInCU: 0x12A0C, offset: 0x1C26D, size: 0x8, addend: 0x0, symName: __ZNSt3__16chrono8durationIxNS_5ratioILl1ELl1000000000EEEEC2B8ue170006IxNS2_ILl1ELl1000EEEEERKNS1_IT_T0_EEPNS_9enable_ifIXaasr13__no_overflowIS8_S3_EE5valueooL_ZNS_17integral_constantIbLb0EE5valueEEaaeqsr13__no_overflowIS8_S3_E4typeE3denLi1Entsr23treat_as_floating_pointIS7_EE5valueEvE4typeE, symObjAddr: 0x76F0, symBinAddr: 0x1000092F0, symSize: 0x50 }
  - { offsetInCU: 0x12A63, offset: 0x1C2C4, size: 0x8, addend: 0x0, symName: __ZNSt3__16chrono15duration_valuesIxE3maxB8ue170006Ev, symObjAddr: 0x7740, symBinAddr: 0x100009340, symSize: 0x10 }
  - { offsetInCU: 0x12A77, offset: 0x1C2D8, size: 0x8, addend: 0x0, symName: __ZNSt3__114numeric_limitsIxE3maxB8ue170006Ev, symObjAddr: 0x7750, symBinAddr: 0x100009350, symSize: 0x10 }
  - { offsetInCU: 0x12A8B, offset: 0x1C2EC, size: 0x8, addend: 0x0, symName: __ZNSt3__123__libcpp_numeric_limitsIxLb1EE3maxB8ue170006Ev, symObjAddr: 0x7760, symBinAddr: 0x100009360, symSize: 0x10 }
  - { offsetInCU: 0x12A9F, offset: 0x1C300, size: 0x8, addend: 0x0, symName: __ZNSt3__112basic_stringIcNS_11char_traitsIcEENS_9allocatorIcEEEC2B8ue170006ILi0EEEPKc, symObjAddr: 0x7770, symBinAddr: 0x100009370, symSize: 0x50 }
  - { offsetInCU: 0x12ADF, offset: 0x1C340, size: 0x8, addend: 0x0, symName: __ZNSt3__16threadC2IM14ConsoleManagerFvxEJPS2_iEvEEOT_DpOT0_, symObjAddr: 0x77C0, symBinAddr: 0x1000093C0, symSize: 0x150 }
  - { offsetInCU: 0x12B7E, offset: 0x1C3DF, size: 0x8, addend: 0x0, symName: __ZNSt3__15tupleIJNS_10unique_ptrINS_15__thread_structENS_14default_deleteIS2_EEEEM14ConsoleManagerFvxEPS6_iEEC1B8ue170006IJS5_S8_S9_iELi0EEEDpOT_, symObjAddr: 0x7910, symBinAddr: 0x100009510, symSize: 0x40 }
  - { offsetInCU: 0x12C96, offset: 0x1C4F7, size: 0x8, addend: 0x0, symName: __ZNSt3__110unique_ptrINS_5tupleIJNS0_INS_15__thread_structENS_14default_deleteIS2_EEEEM14ConsoleManagerFvxEPS6_iEEENS3_ISA_EEEC1B8ue170006ILb1EvEEPSA_, symObjAddr: 0x7950, symBinAddr: 0x100009550, symSize: 0x30 }
  - { offsetInCU: 0x12CD9, offset: 0x1C53A, size: 0x8, addend: 0x0, symName: __ZNKSt3__110unique_ptrINS_5tupleIJNS0_INS_15__thread_structENS_14default_deleteIS2_EEEEM14ConsoleManagerFvxEPS6_iEEENS3_ISA_EEE3getB8ue170006Ev, symObjAddr: 0x7A20, symBinAddr: 0x100009620, symSize: 0x20 }
  - { offsetInCU: 0x12CFF, offset: 0x1C560, size: 0x8, addend: 0x0, symName: __ZNSt3__110unique_ptrINS_5tupleIJNS0_INS_15__thread_structENS_14default_deleteIS2_EEEEM14ConsoleManagerFvxEPS6_iEEENS3_ISA_EEE7releaseB8ue170006Ev, symObjAddr: 0x7A40, symBinAddr: 0x100009640, symSize: 0x40 }
  - { offsetInCU: 0x12D34, offset: 0x1C595, size: 0x8, addend: 0x0, symName: __ZNSt3__110unique_ptrINS_5tupleIJNS0_INS_15__thread_structENS_14default_deleteIS2_EEEEM14ConsoleManagerFvxEPS6_iEEENS3_ISA_EEED1B8ue170006Ev, symObjAddr: 0x7A80, symBinAddr: 0x100009680, symSize: 0x20 }
  - { offsetInCU: 0x12D5E, offset: 0x1C5BF, size: 0x8, addend: 0x0, symName: __ZNSt3__15tupleIJNS_10unique_ptrINS_15__thread_structENS_14default_deleteIS2_EEEEM14ConsoleManagerFvxEPS6_iEEC2B8ue170006IJS5_S8_S9_iELi0EEEDpOT_, symObjAddr: 0x7AA0, symBinAddr: 0x1000096A0, symSize: 0x40 }
  - { offsetInCU: 0x12DE5, offset: 0x1C646, size: 0x8, addend: 0x0, symName: __ZNSt3__112__tuple_implINS_15__tuple_indicesIJLm0ELm1ELm2ELm3EEEEJNS_10unique_ptrINS_15__thread_structENS_14default_deleteIS4_EEEEM14ConsoleManagerFvxEPS8_iEEC1B8ue170006IJLm0ELm1ELm2ELm3EEJS7_SA_SB_iEJEJEJS7_SA_SB_iEEENS1_IJXspT_EEEENS_13__tuple_typesIJDpT0_EEENS1_IJXspT1_EEEENSF_IJDpT2_EEEDpOT3_, symObjAddr: 0x7AE0, symBinAddr: 0x1000096E0, symSize: 0x40 }
  - { offsetInCU: 0x12EDA, offset: 0x1C73B, size: 0x8, addend: 0x0, symName: __ZNSt3__112__tuple_implINS_15__tuple_indicesIJLm0ELm1ELm2ELm3EEEEJNS_10unique_ptrINS_15__thread_structENS_14default_deleteIS4_EEEEM14ConsoleManagerFvxEPS8_iEEC2B8ue170006IJLm0ELm1ELm2ELm3EEJS7_SA_SB_iEJEJEJS7_SA_SB_iEEENS1_IJXspT_EEEENS_13__tuple_typesIJDpT0_EEENS1_IJXspT1_EEEENSF_IJDpT2_EEEDpOT3_, symObjAddr: 0x7B20, symBinAddr: 0x100009720, symSize: 0x70 }
  - { offsetInCU: 0x12FCF, offset: 0x1C830, size: 0x8, addend: 0x0, symName: __ZNSt3__112__tuple_leafILm1EM14ConsoleManagerFvxELb0EEC2B8ue170006IS3_vEEOT_, symObjAddr: 0x7B90, symBinAddr: 0x100009790, symSize: 0x30 }
  - { offsetInCU: 0x13012, offset: 0x1C873, size: 0x8, addend: 0x0, symName: __ZNSt3__112__tuple_leafILm2EP14ConsoleManagerLb0EEC2B8ue170006IS2_vEEOT_, symObjAddr: 0x7BC0, symBinAddr: 0x1000097C0, symSize: 0x20 }
  - { offsetInCU: 0x13055, offset: 0x1C8B6, size: 0x8, addend: 0x0, symName: __ZNSt3__112__tuple_leafILm3EiLb0EEC2B8ue170006IivEEOT_, symObjAddr: 0x7BE0, symBinAddr: 0x1000097E0, symSize: 0x20 }
  - { offsetInCU: 0x13098, offset: 0x1C8F9, size: 0x8, addend: 0x0, symName: __ZNSt3__110unique_ptrINS_5tupleIJNS0_INS_15__thread_structENS_14default_deleteIS2_EEEEM14ConsoleManagerFvxEPS6_iEEENS3_ISA_EEEC2B8ue170006ILb1EvEEPSA_, symObjAddr: 0x7C00, symBinAddr: 0x100009800, symSize: 0x40 }
  - { offsetInCU: 0x130DB, offset: 0x1C93C, size: 0x8, addend: 0x0, symName: __ZNSt3__117__compressed_pairIPNS_5tupleIJNS_10unique_ptrINS_15__thread_structENS_14default_deleteIS3_EEEEM14ConsoleManagerFvxEPS7_iEEENS4_ISB_EEEC1B8ue170006IRSC_NS_16__value_init_tagEEEOT_OT0_, symObjAddr: 0x7C40, symBinAddr: 0x100009840, symSize: 0x30 }
  - { offsetInCU: 0x13133, offset: 0x1C994, size: 0x8, addend: 0x0, symName: __ZNSt3__117__compressed_pairIPNS_5tupleIJNS_10unique_ptrINS_15__thread_structENS_14default_deleteIS3_EEEEM14ConsoleManagerFvxEPS7_iEEENS4_ISB_EEEC2B8ue170006IRSC_NS_16__value_init_tagEEEOT_OT0_, symObjAddr: 0x7C70, symBinAddr: 0x100009870, symSize: 0x40 }
  - { offsetInCU: 0x1318B, offset: 0x1C9EC, size: 0x8, addend: 0x0, symName: __ZNSt3__122__compressed_pair_elemIPNS_5tupleIJNS_10unique_ptrINS_15__thread_structENS_14default_deleteIS3_EEEEM14ConsoleManagerFvxEPS7_iEEELi0ELb0EEC2B8ue170006IRSC_vEEOT_, symObjAddr: 0x7CB0, symBinAddr: 0x1000098B0, symSize: 0x20 }
  - { offsetInCU: 0x131CD, offset: 0x1CA2E, size: 0x8, addend: 0x0, symName: __ZNSt3__122__compressed_pair_elemINS_14default_deleteINS_5tupleIJNS_10unique_ptrINS_15__thread_structENS1_IS4_EEEEM14ConsoleManagerFvxEPS7_iEEEEELi1ELb1EEC2B8ue170006ENS_16__value_init_tagE, symObjAddr: 0x7CD0, symBinAddr: 0x1000098D0, symSize: 0x10 }
  - { offsetInCU: 0x13201, offset: 0x1CA62, size: 0x8, addend: 0x0, symName: __ZNSt3__112__tuple_leafILm1EM14ConsoleManagerFvxELb0EE3getB8ue170006Ev, symObjAddr: 0x7E30, symBinAddr: 0x100009A30, symSize: 0x10 }
  - { offsetInCU: 0x13227, offset: 0x1CA88, size: 0x8, addend: 0x0, symName: __ZNSt3__112__tuple_leafILm2EP14ConsoleManagerLb0EE3getB8ue170006Ev, symObjAddr: 0x7E40, symBinAddr: 0x100009A40, symSize: 0x10 }
  - { offsetInCU: 0x1324D, offset: 0x1CAAE, size: 0x8, addend: 0x0, symName: __ZNSt3__112__tuple_leafILm3EiLb0EE3getB8ue170006Ev, symObjAddr: 0x7E50, symBinAddr: 0x100009A50, symSize: 0x10 }
  - { offsetInCU: 0x13273, offset: 0x1CAD4, size: 0x8, addend: 0x0, symName: __ZNKSt3__117__compressed_pairIPNS_5tupleIJNS_10unique_ptrINS_15__thread_structENS_14default_deleteIS3_EEEEM14ConsoleManagerFvxEPS7_iEEENS4_ISB_EEE5firstB8ue170006Ev, symObjAddr: 0x7E60, symBinAddr: 0x100009A60, symSize: 0x20 }
  - { offsetInCU: 0x13299, offset: 0x1CAFA, size: 0x8, addend: 0x0, symName: __ZNKSt3__122__compressed_pair_elemIPNS_5tupleIJNS_10unique_ptrINS_15__thread_structENS_14default_deleteIS3_EEEEM14ConsoleManagerFvxEPS7_iEEELi0ELb0EE5__getB8ue170006Ev, symObjAddr: 0x7E80, symBinAddr: 0x100009A80, symSize: 0x10 }
  - { offsetInCU: 0x132BF, offset: 0x1CB20, size: 0x8, addend: 0x0, symName: __ZNSt3__117__compressed_pairIPNS_5tupleIJNS_10unique_ptrINS_15__thread_structENS_14default_deleteIS3_EEEEM14ConsoleManagerFvxEPS7_iEEENS4_ISB_EEE5firstB8ue170006Ev, symObjAddr: 0x7E90, symBinAddr: 0x100009A90, symSize: 0x20 }
  - { offsetInCU: 0x132E5, offset: 0x1CB46, size: 0x8, addend: 0x0, symName: __ZNSt3__122__compressed_pair_elemIPNS_5tupleIJNS_10unique_ptrINS_15__thread_structENS_14default_deleteIS3_EEEEM14ConsoleManagerFvxEPS7_iEEELi0ELb0EE5__getB8ue170006Ev, symObjAddr: 0x7EB0, symBinAddr: 0x100009AB0, symSize: 0x10 }
  - { offsetInCU: 0x1330B, offset: 0x1CB6C, size: 0x8, addend: 0x0, symName: __ZNSt3__110unique_ptrINS_5tupleIJNS0_INS_15__thread_structENS_14default_deleteIS2_EEEEM14ConsoleManagerFvxEPS6_iEEENS3_ISA_EEED2B8ue170006Ev, symObjAddr: 0x7EC0, symBinAddr: 0x100009AC0, symSize: 0x20 }
  - { offsetInCU: 0x13335, offset: 0x1CB96, size: 0x8, addend: 0x0, symName: __ZNSt3__110unique_ptrINS_5tupleIJNS0_INS_15__thread_structENS_14default_deleteIS2_EEEEM14ConsoleManagerFvxEPS6_iEEENS3_ISA_EEE5resetB8ue170006EPSA_, symObjAddr: 0x7EE0, symBinAddr: 0x100009AE0, symSize: 0x70 }
  - { offsetInCU: 0x13379, offset: 0x1CBDA, size: 0x8, addend: 0x0, symName: __ZNSt3__117__compressed_pairIPNS_5tupleIJNS_10unique_ptrINS_15__thread_structENS_14default_deleteIS3_EEEEM14ConsoleManagerFvxEPS7_iEEENS4_ISB_EEE6secondB8ue170006Ev, symObjAddr: 0x7F50, symBinAddr: 0x100009B50, symSize: 0x20 }
  - { offsetInCU: 0x1339F, offset: 0x1CC00, size: 0x8, addend: 0x0, symName: __ZNKSt3__114default_deleteINS_5tupleIJNS_10unique_ptrINS_15__thread_structENS0_IS3_EEEEM14ConsoleManagerFvxEPS6_iEEEEclB8ue170006EPSA_, symObjAddr: 0x7F70, symBinAddr: 0x100009B70, symSize: 0x40 }
  - { offsetInCU: 0x133D3, offset: 0x1CC34, size: 0x8, addend: 0x0, symName: __ZNSt3__122__compressed_pair_elemINS_14default_deleteINS_5tupleIJNS_10unique_ptrINS_15__thread_structENS1_IS4_EEEEM14ConsoleManagerFvxEPS7_iEEEEELi1ELb1EE5__getB8ue170006Ev, symObjAddr: 0x7FB0, symBinAddr: 0x100009BB0, symSize: 0x10 }
  - { offsetInCU: 0x133F9, offset: 0x1CC5A, size: 0x8, addend: 0x0, symName: __ZNSt3__15tupleIJNS_10unique_ptrINS_15__thread_structENS_14default_deleteIS2_EEEEM14ConsoleManagerFvxEPS6_iEED1Ev, symObjAddr: 0x7FC0, symBinAddr: 0x100009BC0, symSize: 0x20 }
  - { offsetInCU: 0x13426, offset: 0x1CC87, size: 0x8, addend: 0x0, symName: __ZNSt3__15tupleIJNS_10unique_ptrINS_15__thread_structENS_14default_deleteIS2_EEEEM14ConsoleManagerFvxEPS6_iEED2Ev, symObjAddr: 0x7FE0, symBinAddr: 0x100009BE0, symSize: 0x20 }
  - { offsetInCU: 0x13453, offset: 0x1CCB4, size: 0x8, addend: 0x0, symName: __ZNSt3__112__tuple_implINS_15__tuple_indicesIJLm0ELm1ELm2ELm3EEEEJNS_10unique_ptrINS_15__thread_structENS_14default_deleteIS4_EEEEM14ConsoleManagerFvxEPS8_iEED1Ev, symObjAddr: 0x8000, symBinAddr: 0x100009C00, symSize: 0x20 }
  - { offsetInCU: 0x13480, offset: 0x1CCE1, size: 0x8, addend: 0x0, symName: __ZNSt3__112__tuple_implINS_15__tuple_indicesIJLm0ELm1ELm2ELm3EEEEJNS_10unique_ptrINS_15__thread_structENS_14default_deleteIS4_EEEEM14ConsoleManagerFvxEPS8_iEED2Ev, symObjAddr: 0x8020, symBinAddr: 0x100009C20, symSize: 0x1B }
  - { offsetInCU: 0x39, offset: 0x1CF00, size: 0x8, addend: 0x0, symName: __ZN12CPUScheduler14sharedInstanceE, symObjAddr: 0x62588, symBinAddr: 0x100019008, symSize: 0x0 }
  - { offsetInCU: 0x74A3, offset: 0x2436A, size: 0x8, addend: 0x0, symName: __ZNSt3__117__cxx_atomic_loadB8ue170006IbEET_PKNS_22__cxx_atomic_base_implIS1_EENS_12memory_orderE, symObjAddr: 0x7E60, symBinAddr: 0x100010A50, symSize: 0x70 }
  - { offsetInCU: 0x87D9, offset: 0x256A0, size: 0x8, addend: 0x0, symName: __ZNSt3__1neB8ue170006ERKNS_16__deque_iteratorIP7ProcessPS2_RS2_PS3_lLl512EEES8_, symObjAddr: 0x16F0, symBinAddr: 0x10000B1F0, symSize: 0x30 }
  - { offsetInCU: 0x8816, offset: 0x256DD, size: 0x8, addend: 0x0, symName: __ZNSt3__1eqB8ue170006ERKNS_16__deque_iteratorIP7ProcessPS2_RS2_PS3_lLl512EEES8_, symObjAddr: 0x1A00, symBinAddr: 0x10000B4F0, symSize: 0x30 }
  - { offsetInCU: 0x8853, offset: 0x2571A, size: 0x8, addend: 0x0, symName: __ZNSt3__112__to_addressB8ue170006IP7ProcessEEPT_S4_, symObjAddr: 0x2070, symBinAddr: 0x10000BB60, symSize: 0x10 }
  - { offsetInCU: 0x8888, offset: 0x2574F, size: 0x8, addend: 0x0, symName: __ZNSt3__112__to_addressB8ue170006IPP7ProcessEEPT_S5_, symObjAddr: 0x2470, symBinAddr: 0x10000BEF0, symSize: 0x10 }
  - { offsetInCU: 0x88BD, offset: 0x25784, size: 0x8, addend: 0x0, symName: __ZNSt3__112__to_addressB8ue170006IP9CPUWorkerEEPT_S4_, symObjAddr: 0x2F30, symBinAddr: 0x10000C820, symSize: 0x10 }
  - { offsetInCU: 0x88F2, offset: 0x257B9, size: 0x8, addend: 0x0, symName: __ZNSt3__112__to_addressB8ue170006INS_6threadEEEPT_S3_, symObjAddr: 0x3380, symBinAddr: 0x10000CC70, symSize: 0x10 }
  - { offsetInCU: 0x8927, offset: 0x257EE, size: 0x8, addend: 0x0, symName: __ZNSt3__119__allocate_at_leastB8ue170006INS_9allocatorIP9CPUWorkerEEEENS_19__allocation_resultINS_16allocator_traitsIT_E7pointerEEERS7_m, symObjAddr: 0x4790, symBinAddr: 0x10000D4A0, symSize: 0x40 }
  - { offsetInCU: 0x896A, offset: 0x25831, size: 0x8, addend: 0x0, symName: __ZNSt3__142__uninitialized_allocator_move_if_noexceptB8ue170006INS_9allocatorIP9CPUWorkerEENS_16reverse_iteratorIPS3_EES7_S3_vEET1_RT_T0_SB_S8_, symObjAddr: 0x49A0, symBinAddr: 0x10000D630, symSize: 0x70 }
  - { offsetInCU: 0x89E7, offset: 0x258AE, size: 0x8, addend: 0x0, symName: __ZNSt3__14swapB8ue170006IPP9CPUWorkerEENS_9enable_ifIXaasr21is_move_constructibleIT_EE5valuesr18is_move_assignableIS5_EE5valueEvE4typeERS5_S8_, symObjAddr: 0x4A60, symBinAddr: 0x10000D6F0, symSize: 0x40 }
  - { offsetInCU: 0x8A38, offset: 0x258FF, size: 0x8, addend: 0x0, symName: __ZNSt3__14moveB8ue170006INS_16reverse_iteratorIPP9CPUWorkerEES5_EET0_T_S7_S6_, symObjAddr: 0x4B50, symBinAddr: 0x10000D7E0, symSize: 0x80 }
  - { offsetInCU: 0x8A92, offset: 0x25959, size: 0x8, addend: 0x0, symName: __ZNSt3__16__moveB8ue170006INS_17_ClassicAlgPolicyENS_16reverse_iteratorIPP9CPUWorkerEES6_S6_EENS_4pairIT0_T2_EES8_T1_S9_, symObjAddr: 0x4BD0, symBinAddr: 0x10000D860, symSize: 0x90 }
  - { offsetInCU: 0x8AFE, offset: 0x259C5, size: 0x8, addend: 0x0, symName: __ZNSt3__123__dispatch_copy_or_moveB8ue170006INS_17_ClassicAlgPolicyENS_11__move_loopIS1_EENS_14__move_trivialENS_16reverse_iteratorIPP9CPUWorkerEES9_S9_EENS_4pairIT2_T4_EESB_T3_SC_, symObjAddr: 0x4C60, symBinAddr: 0x10000D8F0, symSize: 0x90 }
  - { offsetInCU: 0x8B7C, offset: 0x25A43, size: 0x8, addend: 0x0, symName: __ZNSt3__121__unwrap_and_dispatchB8ue170006INS_10__overloadINS_11__move_loopINS_17_ClassicAlgPolicyEEENS_14__move_trivialEEENS_16reverse_iteratorIPP9CPUWorkerEESB_SB_Li0EEENS_4pairIT0_T2_EESD_T1_SE_, symObjAddr: 0x4CF0, symBinAddr: 0x10000D980, symSize: 0x210 }
  - { offsetInCU: 0x8C0C, offset: 0x25AD3, size: 0x8, addend: 0x0, symName: __ZNSt3__114__unwrap_rangeB8ue170006INS_16reverse_iteratorIPP9CPUWorkerEES5_EENS_4pairIT0_S7_EET_S9_, symObjAddr: 0x4F00, symBinAddr: 0x10000DB90, symSize: 0x90 }
  - { offsetInCU: 0x8D7E, offset: 0x25C45, size: 0x8, addend: 0x0, symName: __ZNSt3__113__unwrap_iterB8ue170006INS_16reverse_iteratorIPP9CPUWorkerEENS_18__unwrap_iter_implIS5_Lb0EEELi0EEEDTclsrT0_8__unwrapclsr3stdE7declvalIT_EEEES9_, symObjAddr: 0x5030, symBinAddr: 0x10000DCC0, symSize: 0x40 }
  - { offsetInCU: 0x8DC3, offset: 0x25C8A, size: 0x8, addend: 0x0, symName: __ZNSt3__19make_pairB8ue170006INS_16reverse_iteratorIPP9CPUWorkerEES5_EENS_4pairINS_18__unwrap_ref_decayIT_E4typeENS7_IT0_E4typeEEEOS8_OSB_, symObjAddr: 0x5070, symBinAddr: 0x10000DD00, symSize: 0x30 }
  - { offsetInCU: 0x8E12, offset: 0x25CD9, size: 0x8, addend: 0x0, symName: __ZNSt3__114__rewrap_rangeB8ue170006INS_16reverse_iteratorIPP9CPUWorkerEES5_EET_S6_T0_, symObjAddr: 0x50A0, symBinAddr: 0x10000DD30, symSize: 0x60 }
  - { offsetInCU: 0x8E5E, offset: 0x25D25, size: 0x8, addend: 0x0, symName: __ZNSt3__113__rewrap_iterB8ue170006INS_16reverse_iteratorIPP9CPUWorkerEES5_NS_18__unwrap_iter_implIS5_Lb0EEEEET_S8_T0_, symObjAddr: 0x5100, symBinAddr: 0x10000DD90, symSize: 0x70 }
  - { offsetInCU: 0x8EB3, offset: 0x25D7A, size: 0x8, addend: 0x0, symName: __ZNSt3__1neB8ue170006IPP9CPUWorkerS3_EEbRKNS_16reverse_iteratorIT_EERKNS4_IT0_EE, symObjAddr: 0x5170, symBinAddr: 0x10000DE00, symSize: 0x40 }
  - { offsetInCU: 0x940A, offset: 0x262D1, size: 0x8, addend: 0x0, symName: __ZNSt3__14swapB8ue170006IPPP7ProcessEENS_9enable_ifIXaasr21is_move_constructibleIT_EE5valuesr18is_move_assignableIS6_EE5valueEvE4typeERS6_S9_, symObjAddr: 0x68E0, symBinAddr: 0x10000F570, symSize: 0x40 }
  - { offsetInCU: 0x945B, offset: 0x26322, size: 0x8, addend: 0x0, symName: __ZNSt3__14moveB8ue170006IPPP7ProcessS4_EET0_T_S6_S5_, symObjAddr: 0x69A0, symBinAddr: 0x10000F630, symSize: 0x40 }
  - { offsetInCU: 0x94B5, offset: 0x2637C, size: 0x8, addend: 0x0, symName: __ZNSt3__16__moveB8ue170006INS_17_ClassicAlgPolicyEPPP7ProcessS5_S5_EENS_4pairIT0_T2_EES7_T1_S8_, symObjAddr: 0x6AA0, symBinAddr: 0x10000F730, symSize: 0x40 }
  - { offsetInCU: 0x9521, offset: 0x263E8, size: 0x8, addend: 0x0, symName: __ZNSt3__123__dispatch_copy_or_moveB8ue170006INS_17_ClassicAlgPolicyENS_11__move_loopIS1_EENS_14__move_trivialEPPP7ProcessS8_S8_EENS_4pairIT2_T4_EESA_T3_SB_, symObjAddr: 0x6AE0, symBinAddr: 0x10000F770, symSize: 0x40 }
  - { offsetInCU: 0x959F, offset: 0x26466, size: 0x8, addend: 0x0, symName: __ZNSt3__121__unwrap_and_dispatchB8ue170006INS_10__overloadINS_11__move_loopINS_17_ClassicAlgPolicyEEENS_14__move_trivialEEEPPP7ProcessSA_SA_Li0EEENS_4pairIT0_T2_EESC_T1_SD_, symObjAddr: 0x6B20, symBinAddr: 0x10000F7B0, symSize: 0xB0 }
  - { offsetInCU: 0x962F, offset: 0x264F6, size: 0x8, addend: 0x0, symName: __ZNSt3__114__unwrap_rangeB8ue170006IPPP7ProcessS4_EENS_4pairIT0_S6_EET_S8_, symObjAddr: 0x6BD0, symBinAddr: 0x10000F860, symSize: 0x50 }
  - { offsetInCU: 0x97F4, offset: 0x266BB, size: 0x8, addend: 0x0, symName: __ZNSt3__113__unwrap_iterB8ue170006IPPP7ProcessNS_18__unwrap_iter_implIS4_Lb1EEELi0EEEDTclsrT0_8__unwrapclsr3stdE7declvalIT_EEEES8_, symObjAddr: 0x6C60, symBinAddr: 0x10000F8F0, symSize: 0x20 }
  - { offsetInCU: 0x9839, offset: 0x26700, size: 0x8, addend: 0x0, symName: __ZNSt3__19make_pairB8ue170006IPPP7ProcessS4_EENS_4pairINS_18__unwrap_ref_decayIT_E4typeENS6_IT0_E4typeEEEOS7_OSA_, symObjAddr: 0x6C80, symBinAddr: 0x10000F910, symSize: 0x30 }
  - { offsetInCU: 0x9888, offset: 0x2674F, size: 0x8, addend: 0x0, symName: __ZNSt3__114__rewrap_rangeB8ue170006IPPP7ProcessS4_EET_S5_T0_, symObjAddr: 0x6CB0, symBinAddr: 0x10000F940, symSize: 0x30 }
  - { offsetInCU: 0x98D4, offset: 0x2679B, size: 0x8, addend: 0x0, symName: __ZNSt3__113__rewrap_iterB8ue170006IPPP7ProcessS4_NS_18__unwrap_iter_implIS4_Lb1EEEEET_S7_T0_, symObjAddr: 0x6CE0, symBinAddr: 0x10000F970, symSize: 0x40 }
  - { offsetInCU: 0x9929, offset: 0x267F0, size: 0x8, addend: 0x0, symName: __ZNSt3__119__copy_trivial_implB8ue170006IPP7ProcessS3_EENS_4pairIPT_PT0_EES6_S6_S8_, symObjAddr: 0x6D20, symBinAddr: 0x10000F9B0, symSize: 0x70 }
  - { offsetInCU: 0x9991, offset: 0x26858, size: 0x8, addend: 0x0, symName: __ZNSt3__119__constexpr_memmoveB8ue170006IPP7ProcessS3_Li0EEEPT_S5_PT0_NS_15__element_countE, symObjAddr: 0x6D90, symBinAddr: 0x10000FA20, symSize: 0x50 }
  - { offsetInCU: 0x9A00, offset: 0x268C7, size: 0x8, addend: 0x0, symName: __ZNSt3__19make_pairB8ue170006IRPPP7ProcessS4_EENS_4pairINS_18__unwrap_ref_decayIT_E4typeENS7_IT0_E4typeEEEOS8_OSB_, symObjAddr: 0x6DE0, symBinAddr: 0x10000FA70, symSize: 0x30 }
  - { offsetInCU: 0x9AA2, offset: 0x26969, size: 0x8, addend: 0x0, symName: __ZNSt3__18distanceB8ue170006INS_13move_iteratorIPPP7ProcessEEEENS_15iterator_traitsIT_E15difference_typeES8_S8_, symObjAddr: 0x7020, symBinAddr: 0x10000FCB0, symSize: 0x40 }
  - { offsetInCU: 0x9AE5, offset: 0x269AC, size: 0x8, addend: 0x0, symName: __ZNSt3__110__distanceB8ue170006INS_13move_iteratorIPPP7ProcessEEEENS_15iterator_traitsIT_E15difference_typeES8_S8_NS_26random_access_iterator_tagE, symObjAddr: 0x7200, symBinAddr: 0x10000FE90, symSize: 0x30 }
  - { offsetInCU: 0x9B32, offset: 0x269F9, size: 0x8, addend: 0x0, symName: __ZNSt3__1miB8ue170006IPPP7ProcessS4_EEDTmicldtfp_4baseEcldtfp0_4baseEERKNS_13move_iteratorIT_EERKNS6_IT0_EE, symObjAddr: 0x7230, symBinAddr: 0x10000FEC0, symSize: 0x40 }
  - { offsetInCU: 0x9B81, offset: 0x26A48, size: 0x8, addend: 0x0, symName: __ZNSt3__113move_backwardB8ue170006IPPP7ProcessS4_EET0_T_S6_S5_, symObjAddr: 0x7360, symBinAddr: 0x10000FFF0, symSize: 0x40 }
  - { offsetInCU: 0x9BDB, offset: 0x26AA2, size: 0x8, addend: 0x0, symName: __ZNSt3__115__move_backwardB8ue170006INS_17_ClassicAlgPolicyEPPP7ProcessS5_S5_EENS_4pairIT0_T2_EES7_T1_S8_, symObjAddr: 0x73A0, symBinAddr: 0x100010030, symSize: 0x40 }
  - { offsetInCU: 0x9C47, offset: 0x26B0E, size: 0x8, addend: 0x0, symName: __ZNSt3__123__dispatch_copy_or_moveB8ue170006INS_17_ClassicAlgPolicyENS_20__move_backward_loopIS1_EENS_23__move_backward_trivialEPPP7ProcessS8_S8_EENS_4pairIT2_T4_EESA_T3_SB_, symObjAddr: 0x73E0, symBinAddr: 0x100010070, symSize: 0x40 }
  - { offsetInCU: 0x9CC5, offset: 0x26B8C, size: 0x8, addend: 0x0, symName: __ZNSt3__121__unwrap_and_dispatchB8ue170006INS_10__overloadINS_20__move_backward_loopINS_17_ClassicAlgPolicyEEENS_23__move_backward_trivialEEEPPP7ProcessSA_SA_Li0EEENS_4pairIT0_T2_EESC_T1_SD_, symObjAddr: 0x7420, symBinAddr: 0x1000100B0, symSize: 0xB0 }
  - { offsetInCU: 0x9D9C, offset: 0x26C63, size: 0x8, addend: 0x0, symName: __ZNSt3__128__copy_backward_trivial_implB8ue170006IPP7ProcessS3_EENS_4pairIPT_PT0_EES6_S6_S8_, symObjAddr: 0x7510, symBinAddr: 0x1000101A0, symSize: 0x70 }
  - { offsetInCU: 0x9E04, offset: 0x26CCB, size: 0x8, addend: 0x0, symName: __ZNSt3__19make_pairB8ue170006IRPPP7ProcessS5_EENS_4pairINS_18__unwrap_ref_decayIT_E4typeENS7_IT0_E4typeEEEOS8_OSB_, symObjAddr: 0x7580, symBinAddr: 0x100010210, symSize: 0x30 }
  - { offsetInCU: 0x9E53, offset: 0x26D1A, size: 0x8, addend: 0x0, symName: __ZNSt3__119__allocate_at_leastB8ue170006INS_9allocatorIPP7ProcessEEEENS_19__allocation_resultINS_16allocator_traitsIT_E7pointerEEERS8_m, symObjAddr: 0x7710, symBinAddr: 0x1000103A0, symSize: 0x40 }
  - { offsetInCU: 0x9E96, offset: 0x26D5D, size: 0x8, addend: 0x0, symName: __ZNSt3__118__cxx_atomic_storeB8ue170006IbEEvPNS_22__cxx_atomic_base_implIT_EES2_NS_12memory_orderE, symObjAddr: 0x7D20, symBinAddr: 0x1000109B0, symSize: 0x70 }
  - { offsetInCU: 0xA308, offset: 0x271CF, size: 0x8, addend: 0x0, symName: '__ZNSt3__114__thread_proxyB8ue170006INS_5tupleIJNS_10unique_ptrINS_15__thread_structENS_14default_deleteIS3_EEEEZN12CPUScheduler14FCFSSchedulingEvE3$_0EEEEEPvSA_', symObjAddr: 0x8330, symBinAddr: 0x100010EC0, symSize: 0xA0 }
  - { offsetInCU: 0xA366, offset: 0x2722D, size: 0x8, addend: 0x0, symName: '__ZNSt3__13getB8ue170006ILm0EJNS_10unique_ptrINS_15__thread_structENS_14default_deleteIS2_EEEEZN12CPUScheduler14FCFSSchedulingEvE3$_0EEERNS_13tuple_elementIXT_ENS_5tupleIJDpT0_EEEE4typeERSC_', symObjAddr: 0x8940, symBinAddr: 0x100011180, symSize: 0x20 }
  - { offsetInCU: 0xA3AF, offset: 0x27276, size: 0x8, addend: 0x0, symName: '__ZNSt3__116__thread_executeB8ue170006INS_10unique_ptrINS_15__thread_structENS_14default_deleteIS2_EEEEZN12CPUScheduler14FCFSSchedulingEvE3$_0JEJEEEvRNS_5tupleIJT_T0_DpT1_EEENS_15__tuple_indicesIJXspT2_EEEE', symObjAddr: 0x8960, symBinAddr: 0x1000111A0, symSize: 0x30 }
  - { offsetInCU: 0xA400, offset: 0x272C7, size: 0x8, addend: 0x0, symName: '__ZNSt3__18__invokeB8ue170006IZN12CPUScheduler14FCFSSchedulingEvE3$_0JEEEDTclclsr3stdE7declvalIT_EEspclsr3stdE7declvalIT0_EEEEOS3_DpOS4_', symObjAddr: 0x89D0, symBinAddr: 0x1000111D0, symSize: 0x20 }
  - { offsetInCU: 0xA43A, offset: 0x27301, size: 0x8, addend: 0x0, symName: '__ZNSt3__13getB8ue170006ILm1EJNS_10unique_ptrINS_15__thread_structENS_14default_deleteIS2_EEEEZN12CPUScheduler14FCFSSchedulingEvE3$_0EEERNS_13tuple_elementIXT_ENS_5tupleIJDpT0_EEEE4typeERSC_', symObjAddr: 0x89F0, symBinAddr: 0x1000111F0, symSize: 0x20 }
  - { offsetInCU: 0xA87F, offset: 0x27746, size: 0x8, addend: 0x0, symName: __ZNSt3__114__thread_proxyB8ue170006INS_5tupleIJNS_10unique_ptrINS_15__thread_structENS_14default_deleteIS3_EEEEM9CPUWorkerFvvEPS7_EEEEEPvSC_, symObjAddr: 0x8ED0, symBinAddr: 0x1000115E0, symSize: 0xA0 }
  - { offsetInCU: 0xA8E1, offset: 0x277A8, size: 0x8, addend: 0x0, symName: __ZNSt3__13getB8ue170006ILm0EJNS_10unique_ptrINS_15__thread_structENS_14default_deleteIS2_EEEEM9CPUWorkerFvvEPS6_EEERNS_13tuple_elementIXT_ENS_5tupleIJDpT0_EEEE4typeERSE_, symObjAddr: 0x9200, symBinAddr: 0x100011910, symSize: 0x20 }
  - { offsetInCU: 0xA92F, offset: 0x277F6, size: 0x8, addend: 0x0, symName: __ZNSt3__116__thread_executeB8ue170006INS_10unique_ptrINS_15__thread_structENS_14default_deleteIS2_EEEEM9CPUWorkerFvvEJPS6_EJLm2EEEEvRNS_5tupleIJT_T0_DpT1_EEENS_15__tuple_indicesIJXspT2_EEEE, symObjAddr: 0x9220, symBinAddr: 0x100011930, symSize: 0x40 }
  - { offsetInCU: 0xA98A, offset: 0x27851, size: 0x8, addend: 0x0, symName: __ZNSt3__18__invokeB8ue170006IM9CPUWorkerFvvEPS1_JEvEEDTcldsdeclsr3stdE7declvalIT0_EEclsr3stdE7declvalIT_EEspclsr3stdE7declvalIT1_EEEEOS6_OS5_DpOS7_, symObjAddr: 0x9260, symBinAddr: 0x100011970, symSize: 0x70 }
  - { offsetInCU: 0xA9DD, offset: 0x278A4, size: 0x8, addend: 0x0, symName: __ZNSt3__13getB8ue170006ILm1EJNS_10unique_ptrINS_15__thread_structENS_14default_deleteIS2_EEEEM9CPUWorkerFvvEPS6_EEERNS_13tuple_elementIXT_ENS_5tupleIJDpT0_EEEE4typeERSE_, symObjAddr: 0x92D0, symBinAddr: 0x1000119E0, symSize: 0x20 }
  - { offsetInCU: 0xAA2A, offset: 0x278F1, size: 0x8, addend: 0x0, symName: __ZNSt3__13getB8ue170006ILm2EJNS_10unique_ptrINS_15__thread_structENS_14default_deleteIS2_EEEEM9CPUWorkerFvvEPS6_EEERNS_13tuple_elementIXT_ENS_5tupleIJDpT0_EEEE4typeERSE_, symObjAddr: 0x92F0, symBinAddr: 0x100011A00, symSize: 0x20 }
  - { offsetInCU: 0xB4C7, offset: 0x2838E, size: 0x8, addend: 0x0, symName: __ZNSt3__16vectorIP9CPUWorkerNS_9allocatorIS2_EEE26__swap_out_circular_bufferERNS_14__split_bufferIS2_RS4_EE, symObjAddr: 0x4210, symBinAddr: 0x10000D150, symSize: 0x120 }
  - { offsetInCU: 0xB5CD, offset: 0x28494, size: 0x8, addend: 0x0, symName: __ZN12CPUScheduler14FCFSSchedulingEv, symObjAddr: 0x800, symBinAddr: 0x10000A330, symSize: 0x260 }
  - { offsetInCU: 0xD4B0, offset: 0x2A377, size: 0x8, addend: 0x0, symName: __ZN12CPUSchedulerC2ENSt3__112basic_stringIcNS0_11char_traitsIcEENS0_9allocatorIcEEEEixx, symObjAddr: 0x0, symBinAddr: 0x100009C40, symSize: 0x120 }
  - { offsetInCU: 0xD515, offset: 0x2A3DC, size: 0x8, addend: 0x0, symName: __ZNSt3__16atomicIbEC1B8ue170006Eb, symObjAddr: 0x120, symBinAddr: 0x100009D60, symSize: 0x30 }
  - { offsetInCU: 0xD54D, offset: 0x2A414, size: 0x8, addend: 0x0, symName: __ZNSt3__15queueIP7ProcessNS_5dequeIS2_NS_9allocatorIS2_EEEEEC1B8ue170006Ev, symObjAddr: 0x150, symBinAddr: 0x100009D90, symSize: 0x20 }
  - { offsetInCU: 0xD577, offset: 0x2A43E, size: 0x8, addend: 0x0, symName: __ZNSt3__16vectorIP9CPUWorkerNS_9allocatorIS2_EEEC1B8ue170006Ev, symObjAddr: 0x1B0, symBinAddr: 0x100009DB0, symSize: 0x20 }
  - { offsetInCU: 0xD5A1, offset: 0x2A468, size: 0x8, addend: 0x0, symName: __ZNSt3__16vectorINS_6threadENS_9allocatorIS1_EEEC1B8ue170006Ev, symObjAddr: 0x1D0, symBinAddr: 0x100009DD0, symSize: 0x20 }
  - { offsetInCU: 0xD5CB, offset: 0x2A492, size: 0x8, addend: 0x0, symName: __ZNSt3__16vectorINS_6threadENS_9allocatorIS1_EEED1B8ue170006Ev, symObjAddr: 0x1F0, symBinAddr: 0x100009DF0, symSize: 0x20 }
  - { offsetInCU: 0xD5F5, offset: 0x2A4BC, size: 0x8, addend: 0x0, symName: __ZNSt3__16vectorIP9CPUWorkerNS_9allocatorIS2_EEED1B8ue170006Ev, symObjAddr: 0x210, symBinAddr: 0x100009E10, symSize: 0x20 }
  - { offsetInCU: 0xD61F, offset: 0x2A4E6, size: 0x8, addend: 0x0, symName: __ZNSt3__15queueIP7ProcessNS_5dequeIS2_NS_9allocatorIS2_EEEEED1Ev, symObjAddr: 0x230, symBinAddr: 0x100009E30, symSize: 0x20 }
  - { offsetInCU: 0xD64C, offset: 0x2A513, size: 0x8, addend: 0x0, symName: __ZN12CPUSchedulerC1ENSt3__112basic_stringIcNS0_11char_traitsIcEENS0_9allocatorIcEEEEixx, symObjAddr: 0x250, symBinAddr: 0x100009E50, symSize: 0x40 }
  - { offsetInCU: 0xD6B1, offset: 0x2A578, size: 0x8, addend: 0x0, symName: __ZN12CPUSchedulerC2ERKS_, symObjAddr: 0x290, symBinAddr: 0x100009E90, symSize: 0x70 }
  - { offsetInCU: 0xD6E7, offset: 0x2A5AE, size: 0x8, addend: 0x0, symName: __ZN12CPUSchedulerC1ERKS_, symObjAddr: 0x300, symBinAddr: 0x100009F00, symSize: 0x30 }
  - { offsetInCU: 0xD71D, offset: 0x2A5E4, size: 0x8, addend: 0x0, symName: __ZN12CPUScheduler10initializeENSt3__112basic_stringIcNS0_11char_traitsIcEENS0_9allocatorIcEEEEixx, symObjAddr: 0x330, symBinAddr: 0x100009F30, symSize: 0x110 }
  - { offsetInCU: 0xD77E, offset: 0x2A645, size: 0x8, addend: 0x0, symName: __ZN12CPUScheduler20initializeCPUWorkersEi, symObjAddr: 0x440, symBinAddr: 0x10000A040, symSize: 0xC0 }
  - { offsetInCU: 0xD7DC, offset: 0x2A6A3, size: 0x8, addend: 0x0, symName: __ZNSt3__16vectorIP9CPUWorkerNS_9allocatorIS2_EEE9push_backB8ue170006ERKS2_, symObjAddr: 0x540, symBinAddr: 0x10000A100, symSize: 0x60 }
  - { offsetInCU: 0xD813, offset: 0x2A6DA, size: 0x8, addend: 0x0, symName: __ZN12CPUScheduler11getInstanceEv, symObjAddr: 0x5A0, symBinAddr: 0x10000A160, symSize: 0x10 }
  - { offsetInCU: 0xD829, offset: 0x2A6F0, size: 0x8, addend: 0x0, symName: __ZN12CPUScheduler14enqueueProcessEP7Process, symObjAddr: 0x5B0, symBinAddr: 0x10000A170, symSize: 0x70 }
  - { offsetInCU: 0xD886, offset: 0x2A74D, size: 0x8, addend: 0x0, symName: __ZNSt3__110lock_guardINS_5mutexEEC1B8ue170006ERS1_, symObjAddr: 0x620, symBinAddr: 0x10000A1E0, symSize: 0x30 }
  - { offsetInCU: 0xD8BE, offset: 0x2A785, size: 0x8, addend: 0x0, symName: __ZNSt3__15queueIP7ProcessNS_5dequeIS2_NS_9allocatorIS2_EEEEE4pushB8ue170006ERKS2_, symObjAddr: 0x650, symBinAddr: 0x10000A210, symSize: 0x30 }
  - { offsetInCU: 0xD8F3, offset: 0x2A7BA, size: 0x8, addend: 0x0, symName: __ZNSt3__110lock_guardINS_5mutexEED1B8ue170006Ev, symObjAddr: 0x680, symBinAddr: 0x10000A240, symSize: 0x20 }
  - { offsetInCU: 0xD91D, offset: 0x2A7E4, size: 0x8, addend: 0x0, symName: __ZN12CPUScheduler14startSchedulerEv, symObjAddr: 0x6A0, symBinAddr: 0x10000A260, symSize: 0x90 }
  - { offsetInCU: 0xD945, offset: 0x2A80C, size: 0x8, addend: 0x0, symName: __ZNSt3__16atomicIbEaSB8ue170006Eb, symObjAddr: 0x730, symBinAddr: 0x10000A2F0, symSize: 0x40 }
  - { offsetInCU: 0xD979, offset: 0x2A840, size: 0x8, addend: 0x0, symName: __ZN12CPUScheduler12RRSchedulingEv, symObjAddr: 0xA60, symBinAddr: 0x10000A590, symSize: 0x460 }
  - { offsetInCU: 0xDA01, offset: 0x2A8C8, size: 0x8, addend: 0x0, symName: __ZN12CPUScheduler19getNumberOfCPUsUsedEv, symObjAddr: 0xEC0, symBinAddr: 0x10000A9F0, symSize: 0x90 }
  - { offsetInCU: 0xDA53, offset: 0x2A91A, size: 0x8, addend: 0x0, symName: __ZNSt3__16vectorIP9CPUWorkerNS_9allocatorIS2_EEEixB8ue170006Em, symObjAddr: 0xF50, symBinAddr: 0x10000AA80, symSize: 0x20 }
  - { offsetInCU: 0xDA8A, offset: 0x2A951, size: 0x8, addend: 0x0, symName: __ZN12CPUScheduler16getNumberOfCoresEv, symObjAddr: 0xF70, symBinAddr: 0x10000AAA0, symSize: 0x20 }
  - { offsetInCU: 0xDAB2, offset: 0x2A979, size: 0x8, addend: 0x0, symName: __ZNKSt3__113__atomic_baseIbLb0EEcvbB8ue170006Ev, symObjAddr: 0xF90, symBinAddr: 0x10000AAC0, symSize: 0x30 }
  - { offsetInCU: 0xDAD8, offset: 0x2A99F, size: 0x8, addend: 0x0, symName: __ZNKSt3__15queueIP7ProcessNS_5dequeIS2_NS_9allocatorIS2_EEEEE5emptyB8ue170006Ev, symObjAddr: 0xFC0, symBinAddr: 0x10000AAF0, symSize: 0x20 }
  - { offsetInCU: 0xDAFE, offset: 0x2A9C5, size: 0x8, addend: 0x0, symName: __ZNSt3__15queueIP7ProcessNS_5dequeIS2_NS_9allocatorIS2_EEEEE5frontB8ue170006Ev, symObjAddr: 0xFE0, symBinAddr: 0x10000AB10, symSize: 0x20 }
  - { offsetInCU: 0xDB24, offset: 0x2A9EB, size: 0x8, addend: 0x0, symName: __ZNSt3__15queueIP7ProcessNS_5dequeIS2_NS_9allocatorIS2_EEEEE3popB8ue170006Ev, symObjAddr: 0x1000, symBinAddr: 0x10000AB30, symSize: 0x20 }
  - { offsetInCU: 0xDB4F, offset: 0x2AA16, size: 0x8, addend: 0x0, symName: '__ZNSt3__16threadC1IZN12CPUScheduler14FCFSSchedulingEvE3$_0JEvEEOT_DpOT0_', symObjAddr: 0x1020, symBinAddr: 0x10000AB50, symSize: 0x30 }
  - { offsetInCU: 0xDB9C, offset: 0x2AA63, size: 0x8, addend: 0x0, symName: __ZNSt3__16threadC1IM9CPUWorkerFvvEJRPS2_EvEEOT_DpOT0_, symObjAddr: 0x1050, symBinAddr: 0x10000AB80, symSize: 0x30 }
  - { offsetInCU: 0xDBF7, offset: 0x2AABE, size: 0x8, addend: 0x0, symName: __ZNSt3__16atomicIbEC2B8ue170006Eb, symObjAddr: 0x1080, symBinAddr: 0x10000ABB0, symSize: 0x30 }
  - { offsetInCU: 0xDC2F, offset: 0x2AAF6, size: 0x8, addend: 0x0, symName: __ZNSt3__113__atomic_baseIbLb0EEC2B8ue170006Eb, symObjAddr: 0x10B0, symBinAddr: 0x10000ABE0, symSize: 0x30 }
  - { offsetInCU: 0xDC67, offset: 0x2AB2E, size: 0x8, addend: 0x0, symName: __ZNSt3__117__cxx_atomic_implIbNS_22__cxx_atomic_base_implIbEEEC1B8ue170006Eb, symObjAddr: 0x10E0, symBinAddr: 0x10000AC10, symSize: 0x30 }
  - { offsetInCU: 0xDCA0, offset: 0x2AB67, size: 0x8, addend: 0x0, symName: __ZNSt3__117__cxx_atomic_implIbNS_22__cxx_atomic_base_implIbEEEC2B8ue170006Eb, symObjAddr: 0x1110, symBinAddr: 0x10000AC40, symSize: 0x30 }
  - { offsetInCU: 0xDCD9, offset: 0x2ABA0, size: 0x8, addend: 0x0, symName: __ZNSt3__122__cxx_atomic_base_implIbEC2Eb, symObjAddr: 0x1140, symBinAddr: 0x10000AC70, symSize: 0x20 }
  - { offsetInCU: 0xDD12, offset: 0x2ABD9, size: 0x8, addend: 0x0, symName: __ZNSt3__15queueIP7ProcessNS_5dequeIS2_NS_9allocatorIS2_EEEEED2Ev, symObjAddr: 0x1190, symBinAddr: 0x10000AC90, symSize: 0x20 }
  - { offsetInCU: 0xDD3F, offset: 0x2AC06, size: 0x8, addend: 0x0, symName: __ZNSt3__15dequeIP7ProcessNS_9allocatorIS2_EEED1B8ue170006Ev, symObjAddr: 0x11B0, symBinAddr: 0x10000ACB0, symSize: 0x20 }
  - { offsetInCU: 0xDD69, offset: 0x2AC30, size: 0x8, addend: 0x0, symName: __ZNSt3__15dequeIP7ProcessNS_9allocatorIS2_EEED2B8ue170006Ev, symObjAddr: 0x11D0, symBinAddr: 0x10000ACD0, symSize: 0x90 }
  - { offsetInCU: 0xDDBF, offset: 0x2AC86, size: 0x8, addend: 0x0, symName: __ZNSt3__15dequeIP7ProcessNS_9allocatorIS2_EEE5clearEv, symObjAddr: 0x1260, symBinAddr: 0x10000AD60, symSize: 0x1A0 }
  - { offsetInCU: 0xDE1A, offset: 0x2ACE1, size: 0x8, addend: 0x0, symName: __ZNKSt3__15dequeIP7ProcessNS_9allocatorIS2_EEE17__annotate_deleteB8ue170006Ev, symObjAddr: 0x1400, symBinAddr: 0x10000AF00, symSize: 0xE0 }
  - { offsetInCU: 0xDE5D, offset: 0x2AD24, size: 0x8, addend: 0x0, symName: __ZNSt3__114__split_bufferIPP7ProcessNS_9allocatorIS3_EEE5beginB8ue170006Ev, symObjAddr: 0x14E0, symBinAddr: 0x10000AFE0, symSize: 0x20 }
  - { offsetInCU: 0xDE83, offset: 0x2AD4A, size: 0x8, addend: 0x0, symName: __ZNSt3__114__split_bufferIPP7ProcessNS_9allocatorIS3_EEE3endB8ue170006Ev, symObjAddr: 0x1500, symBinAddr: 0x10000B000, symSize: 0x20 }
  - { offsetInCU: 0xDEA9, offset: 0x2AD70, size: 0x8, addend: 0x0, symName: __ZNSt3__116allocator_traitsINS_9allocatorIP7ProcessEEE10deallocateB8ue170006ERS4_PS3_m, symObjAddr: 0x1520, symBinAddr: 0x10000B020, symSize: 0x30 }
  - { offsetInCU: 0xDEEB, offset: 0x2ADB2, size: 0x8, addend: 0x0, symName: __ZNSt3__15dequeIP7ProcessNS_9allocatorIS2_EEE7__allocB8ue170006Ev, symObjAddr: 0x1550, symBinAddr: 0x10000B050, symSize: 0x20 }
  - { offsetInCU: 0xDF11, offset: 0x2ADD8, size: 0x8, addend: 0x0, symName: __ZNSt3__114__split_bufferIPP7ProcessNS_9allocatorIS3_EEED1Ev, symObjAddr: 0x1570, symBinAddr: 0x10000B070, symSize: 0x20 }
  - { offsetInCU: 0xDF3D, offset: 0x2AE04, size: 0x8, addend: 0x0, symName: __ZNSt3__15dequeIP7ProcessNS_9allocatorIS2_EEE5beginB8ue170006Ev, symObjAddr: 0x1590, symBinAddr: 0x10000B090, symSize: 0xB0 }
  - { offsetInCU: 0xDF72, offset: 0x2AE39, size: 0x8, addend: 0x0, symName: __ZNSt3__15dequeIP7ProcessNS_9allocatorIS2_EEE3endB8ue170006Ev, symObjAddr: 0x1640, symBinAddr: 0x10000B140, symSize: 0xB0 }
  - { offsetInCU: 0xDFB6, offset: 0x2AE7D, size: 0x8, addend: 0x0, symName: __ZNSt3__116allocator_traitsINS_9allocatorIP7ProcessEEE7destroyB8ue170006IS3_vEEvRS4_PT_, symObjAddr: 0x1730, symBinAddr: 0x10000B220, symSize: 0x30 }
  - { offsetInCU: 0xDFF3, offset: 0x2AEBA, size: 0x8, addend: 0x0, symName: __ZNKSt3__116__deque_iteratorIP7ProcessPS2_RS2_PS3_lLl512EEdeB8ue170006Ev, symObjAddr: 0x1760, symBinAddr: 0x10000B250, symSize: 0x20 }
  - { offsetInCU: 0xE019, offset: 0x2AEE0, size: 0x8, addend: 0x0, symName: __ZNSt3__116__deque_iteratorIP7ProcessPS2_RS2_PS3_lLl512EEppB8ue170006Ev, symObjAddr: 0x1780, symBinAddr: 0x10000B270, symSize: 0x60 }
  - { offsetInCU: 0xE03F, offset: 0x2AF06, size: 0x8, addend: 0x0, symName: __ZNSt3__15dequeIP7ProcessNS_9allocatorIS2_EEE6__sizeB8ue170006Ev, symObjAddr: 0x17E0, symBinAddr: 0x10000B2D0, symSize: 0x20 }
  - { offsetInCU: 0xE065, offset: 0x2AF2C, size: 0x8, addend: 0x0, symName: __ZNKSt3__114__split_bufferIPP7ProcessNS_9allocatorIS3_EEE4sizeB8ue170006Ev, symObjAddr: 0x1800, symBinAddr: 0x10000B2F0, symSize: 0x20 }
  - { offsetInCU: 0xE08B, offset: 0x2AF52, size: 0x8, addend: 0x0, symName: __ZNSt3__114__split_bufferIPP7ProcessNS_9allocatorIS3_EEE5frontB8ue170006Ev, symObjAddr: 0x1820, symBinAddr: 0x10000B310, symSize: 0x20 }
  - { offsetInCU: 0xE0B1, offset: 0x2AF78, size: 0x8, addend: 0x0, symName: __ZNSt3__114__split_bufferIPP7ProcessNS_9allocatorIS3_EEE9pop_frontB8ue170006Ev, symObjAddr: 0x1840, symBinAddr: 0x10000B330, symSize: 0x30 }
  - { offsetInCU: 0xE0D7, offset: 0x2AF9E, size: 0x8, addend: 0x0, symName: __ZNKSt3__15dequeIP7ProcessNS_9allocatorIS2_EEE14__annotate_newB8ue170006Em, symObjAddr: 0x1870, symBinAddr: 0x10000B360, symSize: 0xA0 }
  - { offsetInCU: 0xE10C, offset: 0x2AFD3, size: 0x8, addend: 0x0, symName: __ZNKSt3__114__split_bufferIPP7ProcessNS_9allocatorIS3_EEE5emptyB8ue170006Ev, symObjAddr: 0x1910, symBinAddr: 0x10000B400, symSize: 0x20 }
  - { offsetInCU: 0xE132, offset: 0x2AFF9, size: 0x8, addend: 0x0, symName: __ZNSt3__116__deque_iteratorIP7ProcessPS2_RS2_PS3_lLl512EEC1B8ue170006ES5_S3_, symObjAddr: 0x1930, symBinAddr: 0x10000B420, symSize: 0x30 }
  - { offsetInCU: 0xE17A, offset: 0x2B041, size: 0x8, addend: 0x0, symName: __ZNSt3__116__deque_iteratorIP7ProcessPS2_RS2_PS3_lLl512EEC2B8ue170006ES5_S3_, symObjAddr: 0x1960, symBinAddr: 0x10000B450, symSize: 0x30 }
  - { offsetInCU: 0xE1C2, offset: 0x2B089, size: 0x8, addend: 0x0, symName: __ZNKSt3__15dequeIP7ProcessNS_9allocatorIS2_EEE4sizeB8ue170006Ev, symObjAddr: 0x1990, symBinAddr: 0x10000B480, symSize: 0x20 }
  - { offsetInCU: 0xE1E8, offset: 0x2B0AF, size: 0x8, addend: 0x0, symName: __ZNKSt3__15dequeIP7ProcessNS_9allocatorIS2_EEE6__sizeB8ue170006Ev, symObjAddr: 0x19B0, symBinAddr: 0x10000B4A0, symSize: 0x20 }
  - { offsetInCU: 0xE20E, offset: 0x2B0D5, size: 0x8, addend: 0x0, symName: __ZNKSt3__117__compressed_pairImNS_9allocatorIP7ProcessEEE5firstB8ue170006Ev, symObjAddr: 0x19D0, symBinAddr: 0x10000B4C0, symSize: 0x20 }
  - { offsetInCU: 0xE234, offset: 0x2B0FB, size: 0x8, addend: 0x0, symName: __ZNKSt3__122__compressed_pair_elemImLi0ELb0EE5__getB8ue170006Ev, symObjAddr: 0x19F0, symBinAddr: 0x10000B4E0, symSize: 0x10 }
  - { offsetInCU: 0xE25A, offset: 0x2B121, size: 0x8, addend: 0x0, symName: __ZNSt3__19allocatorIP7ProcessE7destroyB8ue170006EPS2_, symObjAddr: 0x1A30, symBinAddr: 0x10000B520, symSize: 0x10 }
  - { offsetInCU: 0xE28E, offset: 0x2B155, size: 0x8, addend: 0x0, symName: __ZNSt3__117__compressed_pairImNS_9allocatorIP7ProcessEEE5firstB8ue170006Ev, symObjAddr: 0x1A40, symBinAddr: 0x10000B530, symSize: 0x20 }
  - { offsetInCU: 0xE2B4, offset: 0x2B17B, size: 0x8, addend: 0x0, symName: __ZNSt3__122__compressed_pair_elemImLi0ELb0EE5__getB8ue170006Ev, symObjAddr: 0x1A60, symBinAddr: 0x10000B550, symSize: 0x10 }
  - { offsetInCU: 0xE2DA, offset: 0x2B1A1, size: 0x8, addend: 0x0, symName: __ZNSt3__114__split_bufferIPP7ProcessNS_9allocatorIS3_EEE19__destruct_at_beginB8ue170006EPS3_, symObjAddr: 0x1A70, symBinAddr: 0x10000B560, symSize: 0x30 }
  - { offsetInCU: 0xE30E, offset: 0x2B1D5, size: 0x8, addend: 0x0, symName: __ZNSt3__114__split_bufferIPP7ProcessNS_9allocatorIS3_EEE19__destruct_at_beginEPS3_NS_17integral_constantIbLb1EEE, symObjAddr: 0x1AA0, symBinAddr: 0x10000B590, symSize: 0x20 }
  - { offsetInCU: 0xE34E, offset: 0x2B215, size: 0x8, addend: 0x0, symName: __ZNKSt3__15dequeIP7ProcessNS_9allocatorIS2_EEE18__annotate_from_toB8ue170006EmmNS5_22__asan_annotation_typeENS5_23__asan_annotation_placeE, symObjAddr: 0x1AC0, symBinAddr: 0x10000B5B0, symSize: 0x560 }
  - { offsetInCU: 0xE508, offset: 0x2B3CF, size: 0x8, addend: 0x0, symName: __ZNKSt3__114__split_bufferIPP7ProcessNS_9allocatorIS3_EEE5beginB8ue170006Ev, symObjAddr: 0x2020, symBinAddr: 0x10000BB10, symSize: 0x20 }
  - { offsetInCU: 0xE52E, offset: 0x2B3F5, size: 0x8, addend: 0x0, symName: __ZNKSt3__15dequeIP7ProcessNS_9allocatorIS2_EEE5emptyB8ue170006Ev, symObjAddr: 0x2040, symBinAddr: 0x10000BB30, symSize: 0x30 }
  - { offsetInCU: 0xE554, offset: 0x2B41B, size: 0x8, addend: 0x0, symName: __ZNKSt3__15dequeIP7ProcessNS_9allocatorIS2_EEE44__annotate_double_ended_contiguous_containerB8ue170006EPKvS7_S7_S7_S7_S7_, symObjAddr: 0x2080, symBinAddr: 0x10000BB70, symSize: 0x30 }
  - { offsetInCU: 0xE5C2, offset: 0x2B489, size: 0x8, addend: 0x0, symName: __ZNKSt3__15dequeIP7ProcessNS_9allocatorIS2_EEE22__annotate_whole_blockB8ue170006EmNS5_22__asan_annotation_typeE, symObjAddr: 0x20B0, symBinAddr: 0x10000BBA0, symSize: 0xB0 }
  - { offsetInCU: 0xE633, offset: 0x2B4FA, size: 0x8, addend: 0x0, symName: __ZNKSt3__15dequeIP7ProcessNS_9allocatorIS2_EEE23__annotate_poison_blockB8ue170006EPKvS7_, symObjAddr: 0x2160, symBinAddr: 0x10000BC50, symSize: 0x40 }
  - { offsetInCU: 0xE677, offset: 0x2B53E, size: 0x8, addend: 0x0, symName: __ZNSt3__19allocatorIP7ProcessE10deallocateB8ue170006EPS2_m, symObjAddr: 0x21A0, symBinAddr: 0x10000BC90, symSize: 0x40 }
  - { offsetInCU: 0xE6B9, offset: 0x2B580, size: 0x8, addend: 0x0, symName: __ZNSt3__117__compressed_pairImNS_9allocatorIP7ProcessEEE6secondB8ue170006Ev, symObjAddr: 0x2250, symBinAddr: 0x10000BCD0, symSize: 0x20 }
  - { offsetInCU: 0xE6DF, offset: 0x2B5A6, size: 0x8, addend: 0x0, symName: __ZNSt3__122__compressed_pair_elemINS_9allocatorIP7ProcessEELi1ELb1EE5__getB8ue170006Ev, symObjAddr: 0x2270, symBinAddr: 0x10000BCF0, symSize: 0x10 }
  - { offsetInCU: 0xE705, offset: 0x2B5CC, size: 0x8, addend: 0x0, symName: __ZNSt3__114__split_bufferIPP7ProcessNS_9allocatorIS3_EEED2Ev, symObjAddr: 0x2280, symBinAddr: 0x10000BD00, symSize: 0x70 }
  - { offsetInCU: 0xE731, offset: 0x2B5F8, size: 0x8, addend: 0x0, symName: __ZNSt3__114__split_bufferIPP7ProcessNS_9allocatorIS3_EEE5clearB8ue170006Ev, symObjAddr: 0x22F0, symBinAddr: 0x10000BD70, symSize: 0x20 }
  - { offsetInCU: 0xE757, offset: 0x2B61E, size: 0x8, addend: 0x0, symName: __ZNSt3__116allocator_traitsINS_9allocatorIPP7ProcessEEE10deallocateB8ue170006ERS5_PS4_m, symObjAddr: 0x2310, symBinAddr: 0x10000BD90, symSize: 0x30 }
  - { offsetInCU: 0xE799, offset: 0x2B660, size: 0x8, addend: 0x0, symName: __ZNSt3__114__split_bufferIPP7ProcessNS_9allocatorIS3_EEE7__allocB8ue170006Ev, symObjAddr: 0x2340, symBinAddr: 0x10000BDC0, symSize: 0x20 }
  - { offsetInCU: 0xE7BF, offset: 0x2B686, size: 0x8, addend: 0x0, symName: __ZNKSt3__114__split_bufferIPP7ProcessNS_9allocatorIS3_EEE8capacityB8ue170006Ev, symObjAddr: 0x2360, symBinAddr: 0x10000BDE0, symSize: 0x30 }
  - { offsetInCU: 0xE7E5, offset: 0x2B6AC, size: 0x8, addend: 0x0, symName: __ZNSt3__114__split_bufferIPP7ProcessNS_9allocatorIS3_EEE17__destruct_at_endB8ue170006EPS3_, symObjAddr: 0x2390, symBinAddr: 0x10000BE10, symSize: 0x30 }
  - { offsetInCU: 0xE819, offset: 0x2B6E0, size: 0x8, addend: 0x0, symName: __ZNSt3__114__split_bufferIPP7ProcessNS_9allocatorIS3_EEE17__destruct_at_endB8ue170006EPS3_NS_17integral_constantIbLb0EEE, symObjAddr: 0x23C0, symBinAddr: 0x10000BE40, symSize: 0x80 }
  - { offsetInCU: 0xE859, offset: 0x2B720, size: 0x8, addend: 0x0, symName: __ZNSt3__116allocator_traitsINS_9allocatorIPP7ProcessEEE7destroyB8ue170006IS4_vEEvRS5_PT_, symObjAddr: 0x2440, symBinAddr: 0x10000BEC0, symSize: 0x30 }
  - { offsetInCU: 0xE896, offset: 0x2B75D, size: 0x8, addend: 0x0, symName: __ZNSt3__19allocatorIPP7ProcessE7destroyB8ue170006EPS3_, symObjAddr: 0x2480, symBinAddr: 0x10000BF00, symSize: 0x10 }
  - { offsetInCU: 0xE8CA, offset: 0x2B791, size: 0x8, addend: 0x0, symName: __ZNSt3__19allocatorIPP7ProcessE10deallocateB8ue170006EPS3_m, symObjAddr: 0x2490, symBinAddr: 0x10000BF10, symSize: 0x40 }
  - { offsetInCU: 0xE90C, offset: 0x2B7D3, size: 0x8, addend: 0x0, symName: __ZNSt3__117__compressed_pairIPPP7ProcessNS_9allocatorIS3_EEE6secondB8ue170006Ev, symObjAddr: 0x24D0, symBinAddr: 0x10000BF50, symSize: 0x20 }
  - { offsetInCU: 0xE932, offset: 0x2B7F9, size: 0x8, addend: 0x0, symName: __ZNSt3__122__compressed_pair_elemINS_9allocatorIPP7ProcessEELi1ELb1EE5__getB8ue170006Ev, symObjAddr: 0x24F0, symBinAddr: 0x10000BF70, symSize: 0x10 }
  - { offsetInCU: 0xE958, offset: 0x2B81F, size: 0x8, addend: 0x0, symName: __ZNKSt3__114__split_bufferIPP7ProcessNS_9allocatorIS3_EEE9__end_capB8ue170006Ev, symObjAddr: 0x2500, symBinAddr: 0x10000BF80, symSize: 0x20 }
  - { offsetInCU: 0xE97E, offset: 0x2B845, size: 0x8, addend: 0x0, symName: __ZNKSt3__117__compressed_pairIPPP7ProcessNS_9allocatorIS3_EEE5firstB8ue170006Ev, symObjAddr: 0x2520, symBinAddr: 0x10000BFA0, symSize: 0x20 }
  - { offsetInCU: 0xE9A4, offset: 0x2B86B, size: 0x8, addend: 0x0, symName: __ZNKSt3__122__compressed_pair_elemIPPP7ProcessLi0ELb0EE5__getB8ue170006Ev, symObjAddr: 0x2540, symBinAddr: 0x10000BFC0, symSize: 0x10 }
  - { offsetInCU: 0xE9CF, offset: 0x2B896, size: 0x8, addend: 0x0, symName: __ZNSt3__15queueIP7ProcessNS_5dequeIS2_NS_9allocatorIS2_EEEEEC2B8ue170006Ev, symObjAddr: 0x26E0, symBinAddr: 0x10000BFD0, symSize: 0x20 }
  - { offsetInCU: 0xE9F9, offset: 0x2B8C0, size: 0x8, addend: 0x0, symName: __ZNSt3__15dequeIP7ProcessNS_9allocatorIS2_EEEC1B8ue170006Ev, symObjAddr: 0x2700, symBinAddr: 0x10000BFF0, symSize: 0x20 }
  - { offsetInCU: 0xEA23, offset: 0x2B8EA, size: 0x8, addend: 0x0, symName: __ZNSt3__15dequeIP7ProcessNS_9allocatorIS2_EEEC2B8ue170006Ev, symObjAddr: 0x2720, symBinAddr: 0x10000C010, symSize: 0x60 }
  - { offsetInCU: 0xEA4D, offset: 0x2B914, size: 0x8, addend: 0x0, symName: __ZNSt3__114__split_bufferIPP7ProcessNS_9allocatorIS3_EEEC1B8ue170006Ev, symObjAddr: 0x2780, symBinAddr: 0x10000C070, symSize: 0x20 }
  - { offsetInCU: 0xEA7C, offset: 0x2B943, size: 0x8, addend: 0x0, symName: __ZNSt3__117__compressed_pairImNS_9allocatorIP7ProcessEEEC1B8ue170006IiNS_18__default_init_tagEEEOT_OT0_, symObjAddr: 0x27A0, symBinAddr: 0x10000C090, symSize: 0x30 }
  - { offsetInCU: 0xEAD4, offset: 0x2B99B, size: 0x8, addend: 0x0, symName: __ZNSt3__114__split_bufferIPP7ProcessNS_9allocatorIS3_EEEC2B8ue170006Ev, symObjAddr: 0x27D0, symBinAddr: 0x10000C0C0, symSize: 0x60 }
  - { offsetInCU: 0xEB03, offset: 0x2B9CA, size: 0x8, addend: 0x0, symName: __ZNSt3__117__compressed_pairIPPP7ProcessNS_9allocatorIS3_EEEC1B8ue170006IDnNS_18__default_init_tagEEEOT_OT0_, symObjAddr: 0x2830, symBinAddr: 0x10000C120, symSize: 0x30 }
  - { offsetInCU: 0xEB5B, offset: 0x2BA22, size: 0x8, addend: 0x0, symName: __ZNSt3__117__compressed_pairIPPP7ProcessNS_9allocatorIS3_EEEC2B8ue170006IDnNS_18__default_init_tagEEEOT_OT0_, symObjAddr: 0x2860, symBinAddr: 0x10000C150, symSize: 0x40 }
  - { offsetInCU: 0xEBB3, offset: 0x2BA7A, size: 0x8, addend: 0x0, symName: __ZNSt3__122__compressed_pair_elemIPPP7ProcessLi0ELb0EEC2B8ue170006IDnvEEOT_, symObjAddr: 0x28A0, symBinAddr: 0x10000C190, symSize: 0x20 }
  - { offsetInCU: 0xEBF5, offset: 0x2BABC, size: 0x8, addend: 0x0, symName: __ZNSt3__122__compressed_pair_elemINS_9allocatorIPP7ProcessEELi1ELb1EEC2B8ue170006ENS_18__default_init_tagE, symObjAddr: 0x28C0, symBinAddr: 0x10000C1B0, symSize: 0x20 }
  - { offsetInCU: 0xEC29, offset: 0x2BAF0, size: 0x8, addend: 0x0, symName: __ZNSt3__19allocatorIPP7ProcessEC2B8ue170006Ev, symObjAddr: 0x28E0, symBinAddr: 0x10000C1D0, symSize: 0x20 }
  - { offsetInCU: 0xEC53, offset: 0x2BB1A, size: 0x8, addend: 0x0, symName: __ZNSt3__116__non_trivial_ifILb1ENS_9allocatorIPP7ProcessEEEC2B8ue170006Ev, symObjAddr: 0x2900, symBinAddr: 0x10000C1F0, symSize: 0x10 }
  - { offsetInCU: 0xEC7D, offset: 0x2BB44, size: 0x8, addend: 0x0, symName: __ZNSt3__117__compressed_pairImNS_9allocatorIP7ProcessEEEC2B8ue170006IiNS_18__default_init_tagEEEOT_OT0_, symObjAddr: 0x2910, symBinAddr: 0x10000C200, symSize: 0x40 }
  - { offsetInCU: 0xECD5, offset: 0x2BB9C, size: 0x8, addend: 0x0, symName: __ZNSt3__122__compressed_pair_elemImLi0ELb0EEC2B8ue170006IivEEOT_, symObjAddr: 0x2950, symBinAddr: 0x10000C240, symSize: 0x20 }
  - { offsetInCU: 0xED17, offset: 0x2BBDE, size: 0x8, addend: 0x0, symName: __ZNSt3__122__compressed_pair_elemINS_9allocatorIP7ProcessEELi1ELb1EEC2B8ue170006ENS_18__default_init_tagE, symObjAddr: 0x2970, symBinAddr: 0x10000C260, symSize: 0x20 }
  - { offsetInCU: 0xED4B, offset: 0x2BC12, size: 0x8, addend: 0x0, symName: __ZNSt3__19allocatorIP7ProcessEC2B8ue170006Ev, symObjAddr: 0x2990, symBinAddr: 0x10000C280, symSize: 0x20 }
  - { offsetInCU: 0xED75, offset: 0x2BC3C, size: 0x8, addend: 0x0, symName: __ZNSt3__116__non_trivial_ifILb1ENS_9allocatorIP7ProcessEEEC2B8ue170006Ev, symObjAddr: 0x29B0, symBinAddr: 0x10000C2A0, symSize: 0x10 }
  - { offsetInCU: 0xED9F, offset: 0x2BC66, size: 0x8, addend: 0x0, symName: __ZNSt3__16vectorIP9CPUWorkerNS_9allocatorIS2_EEEC2B8ue170006Ev, symObjAddr: 0x29C0, symBinAddr: 0x10000C2B0, symSize: 0x50 }
  - { offsetInCU: 0xEDC9, offset: 0x2BC90, size: 0x8, addend: 0x0, symName: __ZNSt3__117__compressed_pairIPP9CPUWorkerNS_9allocatorIS2_EEEC1B8ue170006IDnNS_18__default_init_tagEEEOT_OT0_, symObjAddr: 0x2A10, symBinAddr: 0x10000C300, symSize: 0x30 }
  - { offsetInCU: 0xEE21, offset: 0x2BCE8, size: 0x8, addend: 0x0, symName: __ZNSt3__117__compressed_pairIPP9CPUWorkerNS_9allocatorIS2_EEEC2B8ue170006IDnNS_18__default_init_tagEEEOT_OT0_, symObjAddr: 0x2A40, symBinAddr: 0x10000C330, symSize: 0x40 }
  - { offsetInCU: 0xEE79, offset: 0x2BD40, size: 0x8, addend: 0x0, symName: __ZNSt3__122__compressed_pair_elemIPP9CPUWorkerLi0ELb0EEC2B8ue170006IDnvEEOT_, symObjAddr: 0x2A80, symBinAddr: 0x10000C370, symSize: 0x20 }
  - { offsetInCU: 0xEEBB, offset: 0x2BD82, size: 0x8, addend: 0x0, symName: __ZNSt3__122__compressed_pair_elemINS_9allocatorIP9CPUWorkerEELi1ELb1EEC2B8ue170006ENS_18__default_init_tagE, symObjAddr: 0x2AA0, symBinAddr: 0x10000C390, symSize: 0x20 }
  - { offsetInCU: 0xEEEF, offset: 0x2BDB6, size: 0x8, addend: 0x0, symName: __ZNSt3__19allocatorIP9CPUWorkerEC2B8ue170006Ev, symObjAddr: 0x2AC0, symBinAddr: 0x10000C3B0, symSize: 0x20 }
  - { offsetInCU: 0xEF19, offset: 0x2BDE0, size: 0x8, addend: 0x0, symName: __ZNSt3__116__non_trivial_ifILb1ENS_9allocatorIP9CPUWorkerEEEC2B8ue170006Ev, symObjAddr: 0x2AE0, symBinAddr: 0x10000C3D0, symSize: 0x10 }
  - { offsetInCU: 0xEF43, offset: 0x2BE0A, size: 0x8, addend: 0x0, symName: __ZNSt3__16vectorINS_6threadENS_9allocatorIS1_EEEC2B8ue170006Ev, symObjAddr: 0x2AF0, symBinAddr: 0x10000C3E0, symSize: 0x50 }
  - { offsetInCU: 0xEF6D, offset: 0x2BE34, size: 0x8, addend: 0x0, symName: __ZNSt3__117__compressed_pairIPNS_6threadENS_9allocatorIS1_EEEC1B8ue170006IDnNS_18__default_init_tagEEEOT_OT0_, symObjAddr: 0x2B40, symBinAddr: 0x10000C430, symSize: 0x30 }
  - { offsetInCU: 0xEFC5, offset: 0x2BE8C, size: 0x8, addend: 0x0, symName: __ZNSt3__117__compressed_pairIPNS_6threadENS_9allocatorIS1_EEEC2B8ue170006IDnNS_18__default_init_tagEEEOT_OT0_, symObjAddr: 0x2B70, symBinAddr: 0x10000C460, symSize: 0x40 }
  - { offsetInCU: 0xF01D, offset: 0x2BEE4, size: 0x8, addend: 0x0, symName: __ZNSt3__122__compressed_pair_elemIPNS_6threadELi0ELb0EEC2B8ue170006IDnvEEOT_, symObjAddr: 0x2BB0, symBinAddr: 0x10000C4A0, symSize: 0x20 }
  - { offsetInCU: 0xF05F, offset: 0x2BF26, size: 0x8, addend: 0x0, symName: __ZNSt3__122__compressed_pair_elemINS_9allocatorINS_6threadEEELi1ELb1EEC2B8ue170006ENS_18__default_init_tagE, symObjAddr: 0x2BD0, symBinAddr: 0x10000C4C0, symSize: 0x20 }
  - { offsetInCU: 0xF093, offset: 0x2BF5A, size: 0x8, addend: 0x0, symName: __ZNSt3__19allocatorINS_6threadEEC2B8ue170006Ev, symObjAddr: 0x2BF0, symBinAddr: 0x10000C4E0, symSize: 0x20 }
  - { offsetInCU: 0xF0BD, offset: 0x2BF84, size: 0x8, addend: 0x0, symName: __ZNSt3__116__non_trivial_ifILb1ENS_9allocatorINS_6threadEEEEC2B8ue170006Ev, symObjAddr: 0x2C10, symBinAddr: 0x10000C500, symSize: 0x10 }
  - { offsetInCU: 0xF0E7, offset: 0x2BFAE, size: 0x8, addend: 0x0, symName: __ZNSt3__16vectorIP9CPUWorkerNS_9allocatorIS2_EEED2B8ue170006Ev, symObjAddr: 0x2C20, symBinAddr: 0x10000C510, symSize: 0x40 }
  - { offsetInCU: 0xF111, offset: 0x2BFD8, size: 0x8, addend: 0x0, symName: __ZNSt3__16vectorIP9CPUWorkerNS_9allocatorIS2_EEE16__destroy_vectorC1B8ue170006ERS5_, symObjAddr: 0x2C60, symBinAddr: 0x10000C550, symSize: 0x30 }
  - { offsetInCU: 0xF14A, offset: 0x2C011, size: 0x8, addend: 0x0, symName: __ZNSt3__16vectorIP9CPUWorkerNS_9allocatorIS2_EEE16__destroy_vectorclB8ue170006Ev, symObjAddr: 0x2C90, symBinAddr: 0x10000C580, symSize: 0x80 }
  - { offsetInCU: 0xF170, offset: 0x2C037, size: 0x8, addend: 0x0, symName: __ZNSt3__16vectorIP9CPUWorkerNS_9allocatorIS2_EEE16__destroy_vectorC2B8ue170006ERS5_, symObjAddr: 0x2D10, symBinAddr: 0x10000C600, symSize: 0x20 }
  - { offsetInCU: 0xF1A9, offset: 0x2C070, size: 0x8, addend: 0x0, symName: __ZNSt3__16vectorIP9CPUWorkerNS_9allocatorIS2_EEE7__clearB8ue170006Ev, symObjAddr: 0x2D30, symBinAddr: 0x10000C620, symSize: 0x20 }
  - { offsetInCU: 0xF1CF, offset: 0x2C096, size: 0x8, addend: 0x0, symName: __ZNKSt3__16vectorIP9CPUWorkerNS_9allocatorIS2_EEE17__annotate_deleteB8ue170006Ev, symObjAddr: 0x2D50, symBinAddr: 0x10000C640, symSize: 0xB0 }
  - { offsetInCU: 0xF1F5, offset: 0x2C0BC, size: 0x8, addend: 0x0, symName: __ZNSt3__116allocator_traitsINS_9allocatorIP9CPUWorkerEEE10deallocateB8ue170006ERS4_PS3_m, symObjAddr: 0x2E00, symBinAddr: 0x10000C6F0, symSize: 0x30 }
  - { offsetInCU: 0xF237, offset: 0x2C0FE, size: 0x8, addend: 0x0, symName: __ZNSt3__16vectorIP9CPUWorkerNS_9allocatorIS2_EEE7__allocB8ue170006Ev, symObjAddr: 0x2E30, symBinAddr: 0x10000C720, symSize: 0x20 }
  - { offsetInCU: 0xF25D, offset: 0x2C124, size: 0x8, addend: 0x0, symName: __ZNKSt3__16vectorIP9CPUWorkerNS_9allocatorIS2_EEE8capacityB8ue170006Ev, symObjAddr: 0x2E50, symBinAddr: 0x10000C740, symSize: 0x30 }
  - { offsetInCU: 0xF283, offset: 0x2C14A, size: 0x8, addend: 0x0, symName: __ZNSt3__16vectorIP9CPUWorkerNS_9allocatorIS2_EEE22__base_destruct_at_endB8ue170006EPS2_, symObjAddr: 0x2E80, symBinAddr: 0x10000C770, symSize: 0x80 }
  - { offsetInCU: 0xF2C7, offset: 0x2C18E, size: 0x8, addend: 0x0, symName: __ZNSt3__116allocator_traitsINS_9allocatorIP9CPUWorkerEEE7destroyB8ue170006IS3_vEEvRS4_PT_, symObjAddr: 0x2F00, symBinAddr: 0x10000C7F0, symSize: 0x30 }
  - { offsetInCU: 0xF304, offset: 0x2C1CB, size: 0x8, addend: 0x0, symName: __ZNSt3__19allocatorIP9CPUWorkerE7destroyB8ue170006EPS2_, symObjAddr: 0x2F40, symBinAddr: 0x10000C830, symSize: 0x10 }
  - { offsetInCU: 0xF338, offset: 0x2C1FF, size: 0x8, addend: 0x0, symName: __ZNKSt3__16vectorIP9CPUWorkerNS_9allocatorIS2_EEE31__annotate_contiguous_containerB8ue170006EPKvS7_S7_S7_, symObjAddr: 0x2F50, symBinAddr: 0x10000C840, symSize: 0x20 }
  - { offsetInCU: 0xF38E, offset: 0x2C255, size: 0x8, addend: 0x0, symName: __ZNKSt3__16vectorIP9CPUWorkerNS_9allocatorIS2_EEE4dataB8ue170006Ev, symObjAddr: 0x2F70, symBinAddr: 0x10000C860, symSize: 0x20 }
  - { offsetInCU: 0xF3B4, offset: 0x2C27B, size: 0x8, addend: 0x0, symName: __ZNKSt3__16vectorIP9CPUWorkerNS_9allocatorIS2_EEE4sizeB8ue170006Ev, symObjAddr: 0x2F90, symBinAddr: 0x10000C880, symSize: 0x20 }
  - { offsetInCU: 0xF3DA, offset: 0x2C2A1, size: 0x8, addend: 0x0, symName: __ZNSt3__19allocatorIP9CPUWorkerE10deallocateB8ue170006EPS2_m, symObjAddr: 0x2FB0, symBinAddr: 0x10000C8A0, symSize: 0x40 }
  - { offsetInCU: 0xF41C, offset: 0x2C2E3, size: 0x8, addend: 0x0, symName: __ZNSt3__117__compressed_pairIPP9CPUWorkerNS_9allocatorIS2_EEE6secondB8ue170006Ev, symObjAddr: 0x2FF0, symBinAddr: 0x10000C8E0, symSize: 0x20 }
  - { offsetInCU: 0xF442, offset: 0x2C309, size: 0x8, addend: 0x0, symName: __ZNSt3__122__compressed_pair_elemINS_9allocatorIP9CPUWorkerEELi1ELb1EE5__getB8ue170006Ev, symObjAddr: 0x3010, symBinAddr: 0x10000C900, symSize: 0x10 }
  - { offsetInCU: 0xF468, offset: 0x2C32F, size: 0x8, addend: 0x0, symName: __ZNKSt3__16vectorIP9CPUWorkerNS_9allocatorIS2_EEE9__end_capB8ue170006Ev, symObjAddr: 0x3020, symBinAddr: 0x10000C910, symSize: 0x20 }
  - { offsetInCU: 0xF48E, offset: 0x2C355, size: 0x8, addend: 0x0, symName: __ZNKSt3__117__compressed_pairIPP9CPUWorkerNS_9allocatorIS2_EEE5firstB8ue170006Ev, symObjAddr: 0x3040, symBinAddr: 0x10000C930, symSize: 0x20 }
  - { offsetInCU: 0xF4B4, offset: 0x2C37B, size: 0x8, addend: 0x0, symName: __ZNKSt3__122__compressed_pair_elemIPP9CPUWorkerLi0ELb0EE5__getB8ue170006Ev, symObjAddr: 0x3060, symBinAddr: 0x10000C950, symSize: 0x10 }
  - { offsetInCU: 0xF4DA, offset: 0x2C3A1, size: 0x8, addend: 0x0, symName: __ZNSt3__16vectorINS_6threadENS_9allocatorIS1_EEED2B8ue170006Ev, symObjAddr: 0x3070, symBinAddr: 0x10000C960, symSize: 0x40 }
  - { offsetInCU: 0xF504, offset: 0x2C3CB, size: 0x8, addend: 0x0, symName: __ZNSt3__16vectorINS_6threadENS_9allocatorIS1_EEE16__destroy_vectorC1B8ue170006ERS4_, symObjAddr: 0x30B0, symBinAddr: 0x10000C9A0, symSize: 0x30 }
  - { offsetInCU: 0xF53D, offset: 0x2C404, size: 0x8, addend: 0x0, symName: __ZNSt3__16vectorINS_6threadENS_9allocatorIS1_EEE16__destroy_vectorclB8ue170006Ev, symObjAddr: 0x30E0, symBinAddr: 0x10000C9D0, symSize: 0x80 }
  - { offsetInCU: 0xF563, offset: 0x2C42A, size: 0x8, addend: 0x0, symName: __ZNSt3__16vectorINS_6threadENS_9allocatorIS1_EEE16__destroy_vectorC2B8ue170006ERS4_, symObjAddr: 0x3160, symBinAddr: 0x10000CA50, symSize: 0x20 }
  - { offsetInCU: 0xF59C, offset: 0x2C463, size: 0x8, addend: 0x0, symName: __ZNSt3__16vectorINS_6threadENS_9allocatorIS1_EEE7__clearB8ue170006Ev, symObjAddr: 0x3180, symBinAddr: 0x10000CA70, symSize: 0x20 }
  - { offsetInCU: 0xF5C2, offset: 0x2C489, size: 0x8, addend: 0x0, symName: __ZNKSt3__16vectorINS_6threadENS_9allocatorIS1_EEE17__annotate_deleteB8ue170006Ev, symObjAddr: 0x31A0, symBinAddr: 0x10000CA90, symSize: 0xB0 }
  - { offsetInCU: 0xF5E8, offset: 0x2C4AF, size: 0x8, addend: 0x0, symName: __ZNSt3__116allocator_traitsINS_9allocatorINS_6threadEEEE10deallocateB8ue170006ERS3_PS2_m, symObjAddr: 0x3250, symBinAddr: 0x10000CB40, symSize: 0x30 }
  - { offsetInCU: 0xF62A, offset: 0x2C4F1, size: 0x8, addend: 0x0, symName: __ZNSt3__16vectorINS_6threadENS_9allocatorIS1_EEE7__allocB8ue170006Ev, symObjAddr: 0x3280, symBinAddr: 0x10000CB70, symSize: 0x20 }
  - { offsetInCU: 0xF650, offset: 0x2C517, size: 0x8, addend: 0x0, symName: __ZNKSt3__16vectorINS_6threadENS_9allocatorIS1_EEE8capacityB8ue170006Ev, symObjAddr: 0x32A0, symBinAddr: 0x10000CB90, symSize: 0x30 }
  - { offsetInCU: 0xF676, offset: 0x2C53D, size: 0x8, addend: 0x0, symName: __ZNSt3__16vectorINS_6threadENS_9allocatorIS1_EEE22__base_destruct_at_endB8ue170006EPS1_, symObjAddr: 0x32D0, symBinAddr: 0x10000CBC0, symSize: 0x80 }
  - { offsetInCU: 0xF6BA, offset: 0x2C581, size: 0x8, addend: 0x0, symName: __ZNSt3__116allocator_traitsINS_9allocatorINS_6threadEEEE7destroyB8ue170006IS2_vEEvRS3_PT_, symObjAddr: 0x3350, symBinAddr: 0x10000CC40, symSize: 0x30 }
  - { offsetInCU: 0xF6F7, offset: 0x2C5BE, size: 0x8, addend: 0x0, symName: __ZNSt3__19allocatorINS_6threadEE7destroyB8ue170006EPS1_, symObjAddr: 0x3390, symBinAddr: 0x10000CC80, symSize: 0x20 }
  - { offsetInCU: 0xF72B, offset: 0x2C5F2, size: 0x8, addend: 0x0, symName: __ZNKSt3__16vectorINS_6threadENS_9allocatorIS1_EEE31__annotate_contiguous_containerB8ue170006EPKvS6_S6_S6_, symObjAddr: 0x33B0, symBinAddr: 0x10000CCA0, symSize: 0x20 }
  - { offsetInCU: 0xF781, offset: 0x2C648, size: 0x8, addend: 0x0, symName: __ZNKSt3__16vectorINS_6threadENS_9allocatorIS1_EEE4dataB8ue170006Ev, symObjAddr: 0x33D0, symBinAddr: 0x10000CCC0, symSize: 0x20 }
  - { offsetInCU: 0xF7A7, offset: 0x2C66E, size: 0x8, addend: 0x0, symName: __ZNKSt3__16vectorINS_6threadENS_9allocatorIS1_EEE4sizeB8ue170006Ev, symObjAddr: 0x33F0, symBinAddr: 0x10000CCE0, symSize: 0x20 }
  - { offsetInCU: 0xF7CD, offset: 0x2C694, size: 0x8, addend: 0x0, symName: __ZNSt3__19allocatorINS_6threadEE10deallocateB8ue170006EPS1_m, symObjAddr: 0x3410, symBinAddr: 0x10000CD00, symSize: 0x40 }
  - { offsetInCU: 0xF80F, offset: 0x2C6D6, size: 0x8, addend: 0x0, symName: __ZNSt3__117__compressed_pairIPNS_6threadENS_9allocatorIS1_EEE6secondB8ue170006Ev, symObjAddr: 0x3450, symBinAddr: 0x10000CD40, symSize: 0x20 }
  - { offsetInCU: 0xF835, offset: 0x2C6FC, size: 0x8, addend: 0x0, symName: __ZNSt3__122__compressed_pair_elemINS_9allocatorINS_6threadEEELi1ELb1EE5__getB8ue170006Ev, symObjAddr: 0x3470, symBinAddr: 0x10000CD60, symSize: 0x10 }
  - { offsetInCU: 0xF85B, offset: 0x2C722, size: 0x8, addend: 0x0, symName: __ZNKSt3__16vectorINS_6threadENS_9allocatorIS1_EEE9__end_capB8ue170006Ev, symObjAddr: 0x3480, symBinAddr: 0x10000CD70, symSize: 0x20 }
  - { offsetInCU: 0xF881, offset: 0x2C748, size: 0x8, addend: 0x0, symName: __ZNKSt3__117__compressed_pairIPNS_6threadENS_9allocatorIS1_EEE5firstB8ue170006Ev, symObjAddr: 0x34A0, symBinAddr: 0x10000CD90, symSize: 0x20 }
  - { offsetInCU: 0xF8A7, offset: 0x2C76E, size: 0x8, addend: 0x0, symName: __ZNKSt3__122__compressed_pair_elemIPNS_6threadELi0ELb0EE5__getB8ue170006Ev, symObjAddr: 0x34C0, symBinAddr: 0x10000CDB0, symSize: 0x10 }
  - { offsetInCU: 0xF8CD, offset: 0x2C794, size: 0x8, addend: 0x0, symName: __ZNSt3__16vectorIP9CPUWorkerNS_9allocatorIS2_EEE9__end_capB8ue170006Ev, symObjAddr: 0x3E80, symBinAddr: 0x10000CDC0, symSize: 0x20 }
  - { offsetInCU: 0xF8F3, offset: 0x2C7BA, size: 0x8, addend: 0x0, symName: __ZNSt3__16vectorIP9CPUWorkerNS_9allocatorIS2_EEE22__construct_one_at_endB8ue170006IJRKS2_EEEvDpOT_, symObjAddr: 0x3EA0, symBinAddr: 0x10000CDE0, symSize: 0x90 }
  - { offsetInCU: 0xF942, offset: 0x2C809, size: 0x8, addend: 0x0, symName: __ZNSt3__16vectorIP9CPUWorkerNS_9allocatorIS2_EEE21__push_back_slow_pathIRKS2_EEvOT_, symObjAddr: 0x3F30, symBinAddr: 0x10000CE70, symSize: 0xD0 }
  - { offsetInCU: 0xF9A0, offset: 0x2C867, size: 0x8, addend: 0x0, symName: __ZNSt3__117__compressed_pairIPP9CPUWorkerNS_9allocatorIS2_EEE5firstB8ue170006Ev, symObjAddr: 0x4000, symBinAddr: 0x10000CF40, symSize: 0x20 }
  - { offsetInCU: 0xF9C6, offset: 0x2C88D, size: 0x8, addend: 0x0, symName: __ZNSt3__122__compressed_pair_elemIPP9CPUWorkerLi0ELb0EE5__getB8ue170006Ev, symObjAddr: 0x4020, symBinAddr: 0x10000CF60, symSize: 0x10 }
  - { offsetInCU: 0xFA05, offset: 0x2C8CC, size: 0x8, addend: 0x0, symName: __ZNSt3__16vectorIP9CPUWorkerNS_9allocatorIS2_EEE21_ConstructTransactionC1B8ue170006ERS5_m, symObjAddr: 0x4030, symBinAddr: 0x10000CF70, symSize: 0x30 }
  - { offsetInCU: 0xFA4D, offset: 0x2C914, size: 0x8, addend: 0x0, symName: __ZNSt3__116allocator_traitsINS_9allocatorIP9CPUWorkerEEE9constructB8ue170006IS3_JRKS3_EvEEvRS4_PT_DpOT0_, symObjAddr: 0x4060, symBinAddr: 0x10000CFA0, symSize: 0x30 }
  - { offsetInCU: 0xFAA4, offset: 0x2C96B, size: 0x8, addend: 0x0, symName: __ZNSt3__16vectorIP9CPUWorkerNS_9allocatorIS2_EEE21_ConstructTransactionD1B8ue170006Ev, symObjAddr: 0x4090, symBinAddr: 0x10000CFD0, symSize: 0x20 }
  - { offsetInCU: 0xFACE, offset: 0x2C995, size: 0x8, addend: 0x0, symName: __ZNSt3__16vectorIP9CPUWorkerNS_9allocatorIS2_EEE21_ConstructTransactionC2B8ue170006ERS5_m, symObjAddr: 0x40B0, symBinAddr: 0x10000CFF0, symSize: 0x40 }
  - { offsetInCU: 0xFB16, offset: 0x2C9DD, size: 0x8, addend: 0x0, symName: __ZNSt3__19allocatorIP9CPUWorkerE9constructB8ue170006IS2_JRKS2_EEEvPT_DpOT0_, symObjAddr: 0x40F0, symBinAddr: 0x10000D030, symSize: 0x20 }
  - { offsetInCU: 0xFB6C, offset: 0x2CA33, size: 0x8, addend: 0x0, symName: __ZNSt3__16vectorIP9CPUWorkerNS_9allocatorIS2_EEE21_ConstructTransactionD2B8ue170006Ev, symObjAddr: 0x4110, symBinAddr: 0x10000D050, symSize: 0x20 }
  - { offsetInCU: 0xFB96, offset: 0x2CA5D, size: 0x8, addend: 0x0, symName: __ZNKSt3__16vectorIP9CPUWorkerNS_9allocatorIS2_EEE11__recommendB8ue170006Em, symObjAddr: 0x4130, symBinAddr: 0x10000D070, symSize: 0xA0 }
  - { offsetInCU: 0xFBEB, offset: 0x2CAB2, size: 0x8, addend: 0x0, symName: __ZNSt3__114__split_bufferIP9CPUWorkerRNS_9allocatorIS2_EEEC1EmmS5_, symObjAddr: 0x41D0, symBinAddr: 0x10000D110, symSize: 0x40 }
  - { offsetInCU: 0xFC41, offset: 0x2CB08, size: 0x8, addend: 0x0, symName: __ZNSt3__114__split_bufferIP9CPUWorkerRNS_9allocatorIS2_EEED1Ev, symObjAddr: 0x4330, symBinAddr: 0x10000D270, symSize: 0x20 }
  - { offsetInCU: 0xFC6D, offset: 0x2CB34, size: 0x8, addend: 0x0, symName: __ZNKSt3__16vectorIP9CPUWorkerNS_9allocatorIS2_EEE8max_sizeEv, symObjAddr: 0x4350, symBinAddr: 0x10000D290, symSize: 0x60 }
  - { offsetInCU: 0xFC95, offset: 0x2CB5C, size: 0x8, addend: 0x0, symName: __ZNKSt3__16vectorIP9CPUWorkerNS_9allocatorIS2_EEE20__throw_length_errorB8ue170006Ev, symObjAddr: 0x43B0, symBinAddr: 0x10000D2F0, symSize: 0x20 }
  - { offsetInCU: 0xFCC5, offset: 0x2CB8C, size: 0x8, addend: 0x0, symName: __ZNSt3__116allocator_traitsINS_9allocatorIP9CPUWorkerEEE8max_sizeB8ue170006IS4_vEEmRKS4_, symObjAddr: 0x4430, symBinAddr: 0x10000D310, symSize: 0x20 }
  - { offsetInCU: 0xFCF3, offset: 0x2CBBA, size: 0x8, addend: 0x0, symName: __ZNKSt3__16vectorIP9CPUWorkerNS_9allocatorIS2_EEE7__allocB8ue170006Ev, symObjAddr: 0x4450, symBinAddr: 0x10000D330, symSize: 0x20 }
  - { offsetInCU: 0xFD19, offset: 0x2CBE0, size: 0x8, addend: 0x0, symName: __ZNKSt3__19allocatorIP9CPUWorkerE8max_sizeB8ue170006Ev, symObjAddr: 0x4500, symBinAddr: 0x10000D350, symSize: 0x20 }
  - { offsetInCU: 0xFD3F, offset: 0x2CC06, size: 0x8, addend: 0x0, symName: __ZNKSt3__117__compressed_pairIPP9CPUWorkerNS_9allocatorIS2_EEE6secondB8ue170006Ev, symObjAddr: 0x4520, symBinAddr: 0x10000D370, symSize: 0x20 }
  - { offsetInCU: 0xFD65, offset: 0x2CC2C, size: 0x8, addend: 0x0, symName: __ZNKSt3__122__compressed_pair_elemINS_9allocatorIP9CPUWorkerEELi1ELb1EE5__getB8ue170006Ev, symObjAddr: 0x4540, symBinAddr: 0x10000D390, symSize: 0x10 }
  - { offsetInCU: 0xFD8B, offset: 0x2CC52, size: 0x8, addend: 0x0, symName: __ZNSt3__114__split_bufferIP9CPUWorkerRNS_9allocatorIS2_EEEC2EmmS5_, symObjAddr: 0x4690, symBinAddr: 0x10000D3A0, symSize: 0xD0 }
  - { offsetInCU: 0xFDFE, offset: 0x2CCC5, size: 0x8, addend: 0x0, symName: __ZNSt3__117__compressed_pairIPP9CPUWorkerRNS_9allocatorIS2_EEEC1B8ue170006IDnS6_EEOT_OT0_, symObjAddr: 0x4760, symBinAddr: 0x10000D470, symSize: 0x30 }
  - { offsetInCU: 0xFE56, offset: 0x2CD1D, size: 0x8, addend: 0x0, symName: __ZNSt3__114__split_bufferIP9CPUWorkerRNS_9allocatorIS2_EEE7__allocB8ue170006Ev, symObjAddr: 0x47D0, symBinAddr: 0x10000D4E0, symSize: 0x20 }
  - { offsetInCU: 0xFE7C, offset: 0x2CD43, size: 0x8, addend: 0x0, symName: __ZNSt3__114__split_bufferIP9CPUWorkerRNS_9allocatorIS2_EEE9__end_capB8ue170006Ev, symObjAddr: 0x47F0, symBinAddr: 0x10000D500, symSize: 0x20 }
  - { offsetInCU: 0xFEA2, offset: 0x2CD69, size: 0x8, addend: 0x0, symName: __ZNSt3__117__compressed_pairIPP9CPUWorkerRNS_9allocatorIS2_EEEC2B8ue170006IDnS6_EEOT_OT0_, symObjAddr: 0x4810, symBinAddr: 0x10000D520, symSize: 0x40 }
  - { offsetInCU: 0xFEFA, offset: 0x2CDC1, size: 0x8, addend: 0x0, symName: __ZNSt3__122__compressed_pair_elemIRNS_9allocatorIP9CPUWorkerEELi1ELb0EEC2B8ue170006IS5_vEEOT_, symObjAddr: 0x4850, symBinAddr: 0x10000D560, symSize: 0x20 }
  - { offsetInCU: 0xFF3C, offset: 0x2CE03, size: 0x8, addend: 0x0, symName: __ZNSt3__19allocatorIP9CPUWorkerE8allocateB8ue170006Em, symObjAddr: 0x4870, symBinAddr: 0x10000D580, symSize: 0x50 }
  - { offsetInCU: 0xFF70, offset: 0x2CE37, size: 0x8, addend: 0x0, symName: __ZNSt3__117__compressed_pairIPP9CPUWorkerRNS_9allocatorIS2_EEE6secondB8ue170006Ev, symObjAddr: 0x4940, symBinAddr: 0x10000D5D0, symSize: 0x20 }
  - { offsetInCU: 0xFF96, offset: 0x2CE5D, size: 0x8, addend: 0x0, symName: __ZNSt3__122__compressed_pair_elemIRNS_9allocatorIP9CPUWorkerEELi1ELb0EE5__getB8ue170006Ev, symObjAddr: 0x4960, symBinAddr: 0x10000D5F0, symSize: 0x20 }
  - { offsetInCU: 0xFFBC, offset: 0x2CE83, size: 0x8, addend: 0x0, symName: __ZNSt3__117__compressed_pairIPP9CPUWorkerRNS_9allocatorIS2_EEE5firstB8ue170006Ev, symObjAddr: 0x4980, symBinAddr: 0x10000D610, symSize: 0x20 }
  - { offsetInCU: 0xFFE2, offset: 0x2CEA9, size: 0x8, addend: 0x0, symName: __ZNSt3__116reverse_iteratorIPP9CPUWorkerEC1B8ue170006ES3_, symObjAddr: 0x4A10, symBinAddr: 0x10000D6A0, symSize: 0x30 }
  - { offsetInCU: 0x1001A, offset: 0x2CEE1, size: 0x8, addend: 0x0, symName: __ZNKSt3__116reverse_iteratorIPP9CPUWorkerE4baseB8ue170006Ev, symObjAddr: 0x4A40, symBinAddr: 0x10000D6D0, symSize: 0x20 }
  - { offsetInCU: 0x10040, offset: 0x2CF07, size: 0x8, addend: 0x0, symName: __ZNKSt3__16vectorIP9CPUWorkerNS_9allocatorIS2_EEE14__annotate_newB8ue170006Em, symObjAddr: 0x4AA0, symBinAddr: 0x10000D730, symSize: 0xB0 }
  - { offsetInCU: 0x10098, offset: 0x2CF5F, size: 0x8, addend: 0x0, symName: __ZNKSt3__111__move_loopINS_17_ClassicAlgPolicyEEclB8ue170006INS_16reverse_iteratorIPP9CPUWorkerEES8_S8_EENS_4pairIT_T1_EESA_T0_SB_, symObjAddr: 0x4F90, symBinAddr: 0x10000DC20, symSize: 0xA0 }
  - { offsetInCU: 0x10108, offset: 0x2CFCF, size: 0x8, addend: 0x0, symName: __ZNSt3__18_IterOpsINS_17_ClassicAlgPolicyEE11__iter_moveB8ue170006IRNS_16reverse_iteratorIPP9CPUWorkerEEEENS_9enable_ifIXsr12is_referenceIDTdeclsr3stdE7declvalIRT_EEEEE5valueEDTclsr3stdE4movedeclsr3stdE7declvalISC_EEEEE4typeEOSB_, symObjAddr: 0x51B0, symBinAddr: 0x10000DE40, symSize: 0x20 }
  - { offsetInCU: 0x10134, offset: 0x2CFFB, size: 0x8, addend: 0x0, symName: __ZNKSt3__116reverse_iteratorIPP9CPUWorkerEdeB8ue170006Ev, symObjAddr: 0x51D0, symBinAddr: 0x10000DE60, symSize: 0x30 }
  - { offsetInCU: 0x10168, offset: 0x2D02F, size: 0x8, addend: 0x0, symName: __ZNSt3__116reverse_iteratorIPP9CPUWorkerEppB8ue170006Ev, symObjAddr: 0x5200, symBinAddr: 0x10000DE90, symSize: 0x20 }
  - { offsetInCU: 0x1018E, offset: 0x2D055, size: 0x8, addend: 0x0, symName: __ZNSt3__18_IterOpsINS_17_ClassicAlgPolicyEE25__validate_iter_referenceB8ue170006IRNS_16reverse_iteratorIPP9CPUWorkerEEEEvv, symObjAddr: 0x5220, symBinAddr: 0x10000DEB0, symSize: 0x10 }
  - { offsetInCU: 0x101AC, offset: 0x2D073, size: 0x8, addend: 0x0, symName: __ZNSt3__118__unwrap_iter_implINS_16reverse_iteratorIPP9CPUWorkerEELb0EE8__unwrapB8ue170006ES5_, symObjAddr: 0x5230, symBinAddr: 0x10000DEC0, symSize: 0x20 }
  - { offsetInCU: 0x101D4, offset: 0x2D09B, size: 0x8, addend: 0x0, symName: __ZNSt3__14pairINS_16reverse_iteratorIPP9CPUWorkerEES5_EC1B8ue170006IS5_S5_LPv0EEEOT_OT0_, symObjAddr: 0x5250, symBinAddr: 0x10000DEE0, symSize: 0x30 }
  - { offsetInCU: 0x10232, offset: 0x2D0F9, size: 0x8, addend: 0x0, symName: __ZNSt3__14pairINS_16reverse_iteratorIPP9CPUWorkerEES5_EC2B8ue170006IS5_S5_LPv0EEEOT_OT0_, symObjAddr: 0x5280, symBinAddr: 0x10000DF10, symSize: 0x40 }
  - { offsetInCU: 0x10290, offset: 0x2D157, size: 0x8, addend: 0x0, symName: __ZNSt3__118__unwrap_iter_implINS_16reverse_iteratorIPP9CPUWorkerEELb0EE8__rewrapB8ue170006ES5_S5_, symObjAddr: 0x52C0, symBinAddr: 0x10000DF50, symSize: 0x30 }
  - { offsetInCU: 0x102BD, offset: 0x2D184, size: 0x8, addend: 0x0, symName: __ZNSt3__116reverse_iteratorIPP9CPUWorkerEC2B8ue170006ES3_, symObjAddr: 0x52F0, symBinAddr: 0x10000DF80, symSize: 0x30 }
  - { offsetInCU: 0x102F5, offset: 0x2D1BC, size: 0x8, addend: 0x0, symName: __ZNSt3__114__split_bufferIP9CPUWorkerRNS_9allocatorIS2_EEED2Ev, symObjAddr: 0x5320, symBinAddr: 0x10000DFB0, symSize: 0x70 }
  - { offsetInCU: 0x10321, offset: 0x2D1E8, size: 0x8, addend: 0x0, symName: __ZNSt3__114__split_bufferIP9CPUWorkerRNS_9allocatorIS2_EEE5clearB8ue170006Ev, symObjAddr: 0x5390, symBinAddr: 0x10000E020, symSize: 0x20 }
  - { offsetInCU: 0x10347, offset: 0x2D20E, size: 0x8, addend: 0x0, symName: __ZNKSt3__114__split_bufferIP9CPUWorkerRNS_9allocatorIS2_EEE8capacityB8ue170006Ev, symObjAddr: 0x53B0, symBinAddr: 0x10000E040, symSize: 0x30 }
  - { offsetInCU: 0x1036D, offset: 0x2D234, size: 0x8, addend: 0x0, symName: __ZNSt3__114__split_bufferIP9CPUWorkerRNS_9allocatorIS2_EEE17__destruct_at_endB8ue170006EPS2_, symObjAddr: 0x53E0, symBinAddr: 0x10000E070, symSize: 0x30 }
  - { offsetInCU: 0x103A1, offset: 0x2D268, size: 0x8, addend: 0x0, symName: __ZNSt3__114__split_bufferIP9CPUWorkerRNS_9allocatorIS2_EEE17__destruct_at_endB8ue170006EPS2_NS_17integral_constantIbLb0EEE, symObjAddr: 0x5410, symBinAddr: 0x10000E0A0, symSize: 0x80 }
  - { offsetInCU: 0x103E1, offset: 0x2D2A8, size: 0x8, addend: 0x0, symName: __ZNKSt3__114__split_bufferIP9CPUWorkerRNS_9allocatorIS2_EEE9__end_capB8ue170006Ev, symObjAddr: 0x5490, symBinAddr: 0x10000E120, symSize: 0x20 }
  - { offsetInCU: 0x10407, offset: 0x2D2CE, size: 0x8, addend: 0x0, symName: __ZNKSt3__117__compressed_pairIPP9CPUWorkerRNS_9allocatorIS2_EEE5firstB8ue170006Ev, symObjAddr: 0x54B0, symBinAddr: 0x10000E140, symSize: 0x20 }
  - { offsetInCU: 0x1042D, offset: 0x2D2F4, size: 0x8, addend: 0x0, symName: __ZNSt3__110lock_guardINS_5mutexEEC2B8ue170006ERS1_, symObjAddr: 0x54D0, symBinAddr: 0x10000E160, symSize: 0x30 }
  - { offsetInCU: 0x10465, offset: 0x2D32C, size: 0x8, addend: 0x0, symName: __ZNSt3__110lock_guardINS_5mutexEED2B8ue170006Ev, symObjAddr: 0x5500, symBinAddr: 0x10000E190, symSize: 0x20 }
  - { offsetInCU: 0x1048F, offset: 0x2D356, size: 0x8, addend: 0x0, symName: __ZNSt3__15dequeIP7ProcessNS_9allocatorIS2_EEE9push_backERKS2_, symObjAddr: 0x5520, symBinAddr: 0x10000E1B0, symSize: 0xA0 }
  - { offsetInCU: 0x104D5, offset: 0x2D39C, size: 0x8, addend: 0x0, symName: __ZNKSt3__15dequeIP7ProcessNS_9allocatorIS2_EEE12__back_spareB8ue170006Ev, symObjAddr: 0x55C0, symBinAddr: 0x10000E250, symSize: 0x50 }
  - { offsetInCU: 0x104FB, offset: 0x2D3C2, size: 0x8, addend: 0x0, symName: __ZNSt3__15dequeIP7ProcessNS_9allocatorIS2_EEE19__add_back_capacityEv, symObjAddr: 0x5610, symBinAddr: 0x10000E2A0, symSize: 0x3C0 }
  - { offsetInCU: 0x105B0, offset: 0x2D477, size: 0x8, addend: 0x0, symName: __ZNKSt3__15dequeIP7ProcessNS_9allocatorIS2_EEE24__annotate_increase_backB8ue170006Em, symObjAddr: 0x59D0, symBinAddr: 0x10000E660, symSize: 0x70 }
  - { offsetInCU: 0x105E5, offset: 0x2D4AC, size: 0x8, addend: 0x0, symName: __ZNSt3__116allocator_traitsINS_9allocatorIP7ProcessEEE9constructB8ue170006IS3_JRKS3_EvEEvRS4_PT_DpOT0_, symObjAddr: 0x5A40, symBinAddr: 0x10000E6D0, symSize: 0x30 }
  - { offsetInCU: 0x1063C, offset: 0x2D503, size: 0x8, addend: 0x0, symName: __ZNKSt3__15dequeIP7ProcessNS_9allocatorIS2_EEE10__capacityB8ue170006Ev, symObjAddr: 0x5A70, symBinAddr: 0x10000E700, symSize: 0x50 }
  - { offsetInCU: 0x10662, offset: 0x2D529, size: 0x8, addend: 0x0, symName: __ZNKSt3__15dequeIP7ProcessNS_9allocatorIS2_EEE13__front_spareB8ue170006Ev, symObjAddr: 0x5AC0, symBinAddr: 0x10000E750, symSize: 0x20 }
  - { offsetInCU: 0x10688, offset: 0x2D54F, size: 0x8, addend: 0x0, symName: __ZNSt3__114__split_bufferIPP7ProcessNS_9allocatorIS3_EEE9push_backB8ue170006ERKS3_, symObjAddr: 0x5AE0, symBinAddr: 0x10000E770, symSize: 0x290 }
  - { offsetInCU: 0x10700, offset: 0x2D5C7, size: 0x8, addend: 0x0, symName: __ZNKSt3__114__split_bufferIPP7ProcessNS_9allocatorIS3_EEE12__back_spareB8ue170006Ev, symObjAddr: 0x5D70, symBinAddr: 0x10000EA00, symSize: 0x40 }
  - { offsetInCU: 0x10726, offset: 0x2D5ED, size: 0x8, addend: 0x0, symName: __ZNSt3__114__split_bufferIPP7ProcessNS_9allocatorIS3_EEE9push_backEOS3_, symObjAddr: 0x5DB0, symBinAddr: 0x10000EA40, symSize: 0x290 }
  - { offsetInCU: 0x1079E, offset: 0x2D665, size: 0x8, addend: 0x0, symName: __ZNSt3__116allocator_traitsINS_9allocatorIP7ProcessEEE8allocateB8ue170006ERS4_m, symObjAddr: 0x6040, symBinAddr: 0x10000ECD0, symSize: 0x30 }
  - { offsetInCU: 0x107D1, offset: 0x2D698, size: 0x8, addend: 0x0, symName: __ZNSt3__114__split_bufferIPP7ProcessNS_9allocatorIS3_EEE10push_frontEOS3_, symObjAddr: 0x6070, symBinAddr: 0x10000ED00, symSize: 0x270 }
  - { offsetInCU: 0x10849, offset: 0x2D710, size: 0x8, addend: 0x0, symName: __ZNSt3__114__split_bufferIPP7ProcessRNS_9allocatorIS3_EEEC1EmmS6_, symObjAddr: 0x62E0, symBinAddr: 0x10000EF70, symSize: 0x40 }
  - { offsetInCU: 0x108A4, offset: 0x2D76B, size: 0x8, addend: 0x0, symName: __ZNSt3__122__allocator_destructorINS_9allocatorIP7ProcessEEEC1B8ue170006ERS4_m, symObjAddr: 0x6320, symBinAddr: 0x10000EFB0, symSize: 0x30 }
  - { offsetInCU: 0x10967, offset: 0x2D82E, size: 0x8, addend: 0x0, symName: __ZNSt3__110unique_ptrIPP7ProcessNS_22__allocator_destructorINS_9allocatorIS2_EEEEEC1B8ue170006ILb1EvEES3_NS_16__dependent_typeINS_27__unique_ptr_deleter_sfinaeIS7_EEXT_EE20__good_rval_ref_typeE, symObjAddr: 0x6350, symBinAddr: 0x10000EFE0, symSize: 0x30 }
  - { offsetInCU: 0x109B8, offset: 0x2D87F, size: 0x8, addend: 0x0, symName: __ZNSt3__114__split_bufferIPP7ProcessRNS_9allocatorIS3_EEE9push_backEOS3_, symObjAddr: 0x6380, symBinAddr: 0x10000F010, symSize: 0x290 }
  - { offsetInCU: 0x10A30, offset: 0x2D8F7, size: 0x8, addend: 0x0, symName: __ZNKSt3__110unique_ptrIPP7ProcessNS_22__allocator_destructorINS_9allocatorIS2_EEEEE3getB8ue170006Ev, symObjAddr: 0x6610, symBinAddr: 0x10000F2A0, symSize: 0x20 }
  - { offsetInCU: 0x10A56, offset: 0x2D91D, size: 0x8, addend: 0x0, symName: __ZNSt3__110unique_ptrIPP7ProcessNS_22__allocator_destructorINS_9allocatorIS2_EEEEE7releaseB8ue170006Ev, symObjAddr: 0x6630, symBinAddr: 0x10000F2C0, symSize: 0x40 }
  - { offsetInCU: 0x10A8B, offset: 0x2D952, size: 0x8, addend: 0x0, symName: __ZNSt3__114__split_bufferIPP7ProcessRNS_9allocatorIS3_EEE10push_frontERKS3_, symObjAddr: 0x6670, symBinAddr: 0x10000F300, symSize: 0x270 }
  - { offsetInCU: 0x10B03, offset: 0x2D9CA, size: 0x8, addend: 0x0, symName: __ZNSt3__114__split_bufferIPP7ProcessNS_9allocatorIS3_EEE9__end_capB8ue170006Ev, symObjAddr: 0x6920, symBinAddr: 0x10000F5B0, symSize: 0x20 }
  - { offsetInCU: 0x10B29, offset: 0x2D9F0, size: 0x8, addend: 0x0, symName: __ZNSt3__114__split_bufferIPP7ProcessRNS_9allocatorIS3_EEE9__end_capB8ue170006Ev, symObjAddr: 0x6940, symBinAddr: 0x10000F5D0, symSize: 0x20 }
  - { offsetInCU: 0x10B4F, offset: 0x2DA16, size: 0x8, addend: 0x0, symName: __ZNSt3__110unique_ptrIPP7ProcessNS_22__allocator_destructorINS_9allocatorIS2_EEEEED1B8ue170006Ev, symObjAddr: 0x6960, symBinAddr: 0x10000F5F0, symSize: 0x20 }
  - { offsetInCU: 0x10B79, offset: 0x2DA40, size: 0x8, addend: 0x0, symName: __ZNSt3__114__split_bufferIPP7ProcessRNS_9allocatorIS3_EEED1Ev, symObjAddr: 0x6980, symBinAddr: 0x10000F610, symSize: 0x20 }
  - { offsetInCU: 0x10BA5, offset: 0x2DA6C, size: 0x8, addend: 0x0, symName: __ZNSt3__114__split_bufferIPP7ProcessRNS_9allocatorIS3_EEE18__construct_at_endINS_13move_iteratorIPS3_EEEENS_9enable_ifIXsr31__has_forward_iterator_categoryIT_EE5valueEvE4typeESD_SD_, symObjAddr: 0x69E0, symBinAddr: 0x10000F670, symSize: 0x60 }
  - { offsetInCU: 0x10BF2, offset: 0x2DAB9, size: 0x8, addend: 0x0, symName: __ZNSt3__113move_iteratorIPPP7ProcessEC1B8ue170006ES4_, symObjAddr: 0x6A40, symBinAddr: 0x10000F6D0, symSize: 0x30 }
  - { offsetInCU: 0x10C2A, offset: 0x2DAF1, size: 0x8, addend: 0x0, symName: __ZNSt3__116allocator_traitsINS_9allocatorIPP7ProcessEEE9constructB8ue170006IS4_JRKS4_EvEEvRS5_PT_DpOT0_, symObjAddr: 0x6A70, symBinAddr: 0x10000F700, symSize: 0x30 }
  - { offsetInCU: 0x10CA4, offset: 0x2DB6B, size: 0x8, addend: 0x0, symName: __ZNKSt3__114__move_trivialclB8ue170006IPP7ProcessS4_Li0EEENS_4pairIPT_PT0_EES7_S7_S9_, symObjAddr: 0x6C20, symBinAddr: 0x10000F8B0, symSize: 0x40 }
  - { offsetInCU: 0x10D12, offset: 0x2DBD9, size: 0x8, addend: 0x0, symName: __ZNSt3__14pairIPPP7ProcessS4_EC1B8ue170006IRS4_S4_LPv0EEEOT_OT0_, symObjAddr: 0x6E10, symBinAddr: 0x10000FAA0, symSize: 0x30 }
  - { offsetInCU: 0x10D70, offset: 0x2DC37, size: 0x8, addend: 0x0, symName: __ZNSt3__14pairIPPP7ProcessS4_EC2B8ue170006IRS4_S4_LPv0EEEOT_OT0_, symObjAddr: 0x6E40, symBinAddr: 0x10000FAD0, symSize: 0x30 }
  - { offsetInCU: 0x10DCE, offset: 0x2DC95, size: 0x8, addend: 0x0, symName: __ZNSt3__118__unwrap_iter_implIPPP7ProcessLb1EE8__unwrapB8ue170006ES4_, symObjAddr: 0x6E70, symBinAddr: 0x10000FB00, symSize: 0x20 }
  - { offsetInCU: 0x10DF1, offset: 0x2DCB8, size: 0x8, addend: 0x0, symName: __ZNSt3__14pairIPPP7ProcessS4_EC1B8ue170006IS4_S4_LPv0EEEOT_OT0_, symObjAddr: 0x6E90, symBinAddr: 0x10000FB20, symSize: 0x30 }
  - { offsetInCU: 0x10E4F, offset: 0x2DD16, size: 0x8, addend: 0x0, symName: __ZNSt3__14pairIPPP7ProcessS4_EC2B8ue170006IS4_S4_LPv0EEEOT_OT0_, symObjAddr: 0x6EC0, symBinAddr: 0x10000FB50, symSize: 0x30 }
  - { offsetInCU: 0x10EAD, offset: 0x2DD74, size: 0x8, addend: 0x0, symName: __ZNSt3__118__unwrap_iter_implIPPP7ProcessLb1EE8__rewrapB8ue170006ES4_S4_, symObjAddr: 0x6EF0, symBinAddr: 0x10000FB80, symSize: 0x50 }
  - { offsetInCU: 0x10EDE, offset: 0x2DDA5, size: 0x8, addend: 0x0, symName: __ZNSt3__114__split_bufferIPP7ProcessRNS_9allocatorIS3_EEE28__construct_at_end_with_sizeINS_13move_iteratorIPS3_EEEEvT_m, symObjAddr: 0x6F40, symBinAddr: 0x10000FBD0, symSize: 0xE0 }
  - { offsetInCU: 0x10F44, offset: 0x2DE0B, size: 0x8, addend: 0x0, symName: __ZNSt3__114__split_bufferIPP7ProcessRNS_9allocatorIS3_EEE21_ConstructTransactionC1B8ue170006EPPS3_m, symObjAddr: 0x7060, symBinAddr: 0x10000FCF0, symSize: 0x30 }
  - { offsetInCU: 0x10F8A, offset: 0x2DE51, size: 0x8, addend: 0x0, symName: __ZNSt3__116allocator_traitsINS_9allocatorIPP7ProcessEEE9constructB8ue170006IS4_JS4_EvEEvRS5_PT_DpOT0_, symObjAddr: 0x7090, symBinAddr: 0x10000FD20, symSize: 0x30 }
  - { offsetInCU: 0x10FE1, offset: 0x2DEA8, size: 0x8, addend: 0x0, symName: __ZNSt3__114__split_bufferIPP7ProcessRNS_9allocatorIS3_EEE7__allocB8ue170006Ev, symObjAddr: 0x70C0, symBinAddr: 0x10000FD50, symSize: 0x20 }
  - { offsetInCU: 0x11007, offset: 0x2DECE, size: 0x8, addend: 0x0, symName: __ZNKSt3__113move_iteratorIPPP7ProcessEdeB8ue170006Ev, symObjAddr: 0x70E0, symBinAddr: 0x10000FD70, symSize: 0x20 }
  - { offsetInCU: 0x1102D, offset: 0x2DEF4, size: 0x8, addend: 0x0, symName: __ZNSt3__113move_iteratorIPPP7ProcessEppB8ue170006Ev, symObjAddr: 0x7100, symBinAddr: 0x10000FD90, symSize: 0x20 }
  - { offsetInCU: 0x11053, offset: 0x2DF1A, size: 0x8, addend: 0x0, symName: __ZNSt3__114__split_bufferIPP7ProcessRNS_9allocatorIS3_EEE21_ConstructTransactionD1B8ue170006Ev, symObjAddr: 0x7120, symBinAddr: 0x10000FDB0, symSize: 0x20 }
  - { offsetInCU: 0x1107D, offset: 0x2DF44, size: 0x8, addend: 0x0, symName: __ZNSt3__114__split_bufferIPP7ProcessRNS_9allocatorIS3_EEE21_ConstructTransactionC2B8ue170006EPPS3_m, symObjAddr: 0x7140, symBinAddr: 0x10000FDD0, symSize: 0x40 }
  - { offsetInCU: 0x110C3, offset: 0x2DF8A, size: 0x8, addend: 0x0, symName: __ZNSt3__19allocatorIPP7ProcessE9constructB8ue170006IS3_JS3_EEEvPT_DpOT0_, symObjAddr: 0x7180, symBinAddr: 0x10000FE10, symSize: 0x20 }
  - { offsetInCU: 0x11119, offset: 0x2DFE0, size: 0x8, addend: 0x0, symName: __ZNSt3__117__compressed_pairIPPP7ProcessRNS_9allocatorIS3_EEE6secondB8ue170006Ev, symObjAddr: 0x71A0, symBinAddr: 0x10000FE30, symSize: 0x20 }
  - { offsetInCU: 0x1113F, offset: 0x2E006, size: 0x8, addend: 0x0, symName: __ZNSt3__122__compressed_pair_elemIRNS_9allocatorIPP7ProcessEELi1ELb0EE5__getB8ue170006Ev, symObjAddr: 0x71C0, symBinAddr: 0x10000FE50, symSize: 0x20 }
  - { offsetInCU: 0x11165, offset: 0x2E02C, size: 0x8, addend: 0x0, symName: __ZNSt3__114__split_bufferIPP7ProcessRNS_9allocatorIS3_EEE21_ConstructTransactionD2B8ue170006Ev, symObjAddr: 0x71E0, symBinAddr: 0x10000FE70, symSize: 0x20 }
  - { offsetInCU: 0x1118F, offset: 0x2E056, size: 0x8, addend: 0x0, symName: __ZNKSt3__113move_iteratorIPPP7ProcessE4baseB8ue170006Ev, symObjAddr: 0x7270, symBinAddr: 0x10000FF00, symSize: 0x20 }
  - { offsetInCU: 0x111B5, offset: 0x2E07C, size: 0x8, addend: 0x0, symName: __ZNSt3__113move_iteratorIPPP7ProcessEC2B8ue170006ES4_, symObjAddr: 0x7290, symBinAddr: 0x10000FF20, symSize: 0x20 }
  - { offsetInCU: 0x111ED, offset: 0x2E0B4, size: 0x8, addend: 0x0, symName: __ZNSt3__19allocatorIPP7ProcessE9constructB8ue170006IS3_JRKS3_EEEvPT_DpOT0_, symObjAddr: 0x72B0, symBinAddr: 0x10000FF40, symSize: 0x20 }
  - { offsetInCU: 0x11243, offset: 0x2E10A, size: 0x8, addend: 0x0, symName: __ZNSt3__19allocatorIP7ProcessE8allocateB8ue170006Em, symObjAddr: 0x72D0, symBinAddr: 0x10000FF60, symSize: 0x50 }
  - { offsetInCU: 0x11281, offset: 0x2E148, size: 0x8, addend: 0x0, symName: __ZNSt3__116allocator_traitsINS_9allocatorIP7ProcessEEE8max_sizeB8ue170006IS4_vEEmRKS4_, symObjAddr: 0x7320, symBinAddr: 0x10000FFB0, symSize: 0x20 }
  - { offsetInCU: 0x112AF, offset: 0x2E176, size: 0x8, addend: 0x0, symName: __ZNKSt3__19allocatorIP7ProcessE8max_sizeB8ue170006Ev, symObjAddr: 0x7340, symBinAddr: 0x10000FFD0, symSize: 0x20 }
  - { offsetInCU: 0x112DF, offset: 0x2E1A6, size: 0x8, addend: 0x0, symName: __ZNKSt3__123__move_backward_trivialclB8ue170006IPP7ProcessS4_Li0EEENS_4pairIPT_PT0_EES7_S7_S9_, symObjAddr: 0x74D0, symBinAddr: 0x100010160, symSize: 0x40 }
  - { offsetInCU: 0x11348, offset: 0x2E20F, size: 0x8, addend: 0x0, symName: __ZNSt3__14pairIPPP7ProcessS4_EC1B8ue170006IRS4_S7_LPv0EEEOT_OT0_, symObjAddr: 0x75B0, symBinAddr: 0x100010240, symSize: 0x30 }
  - { offsetInCU: 0x113A6, offset: 0x2E26D, size: 0x8, addend: 0x0, symName: __ZNSt3__14pairIPPP7ProcessS4_EC2B8ue170006IRS4_S7_LPv0EEEOT_OT0_, symObjAddr: 0x75E0, symBinAddr: 0x100010270, symSize: 0x30 }
  - { offsetInCU: 0x11404, offset: 0x2E2CB, size: 0x8, addend: 0x0, symName: __ZNSt3__114__split_bufferIPP7ProcessRNS_9allocatorIS3_EEEC2EmmS6_, symObjAddr: 0x7610, symBinAddr: 0x1000102A0, symSize: 0xD0 }
  - { offsetInCU: 0x11477, offset: 0x2E33E, size: 0x8, addend: 0x0, symName: __ZNSt3__117__compressed_pairIPPP7ProcessRNS_9allocatorIS3_EEEC1B8ue170006IDnS7_EEOT_OT0_, symObjAddr: 0x76E0, symBinAddr: 0x100010370, symSize: 0x30 }
  - { offsetInCU: 0x114CF, offset: 0x2E396, size: 0x8, addend: 0x0, symName: __ZNSt3__117__compressed_pairIPPP7ProcessRNS_9allocatorIS3_EEEC2B8ue170006IDnS7_EEOT_OT0_, symObjAddr: 0x7750, symBinAddr: 0x1000103E0, symSize: 0x40 }
  - { offsetInCU: 0x11527, offset: 0x2E3EE, size: 0x8, addend: 0x0, symName: __ZNSt3__122__compressed_pair_elemIRNS_9allocatorIPP7ProcessEELi1ELb0EEC2B8ue170006IS6_vEEOT_, symObjAddr: 0x7790, symBinAddr: 0x100010420, symSize: 0x20 }
  - { offsetInCU: 0x11569, offset: 0x2E430, size: 0x8, addend: 0x0, symName: __ZNSt3__19allocatorIPP7ProcessE8allocateB8ue170006Em, symObjAddr: 0x77B0, symBinAddr: 0x100010440, symSize: 0x50 }
  - { offsetInCU: 0x115A7, offset: 0x2E46E, size: 0x8, addend: 0x0, symName: __ZNSt3__116allocator_traitsINS_9allocatorIPP7ProcessEEE8max_sizeB8ue170006IS5_vEEmRKS5_, symObjAddr: 0x7800, symBinAddr: 0x100010490, symSize: 0x20 }
  - { offsetInCU: 0x115D5, offset: 0x2E49C, size: 0x8, addend: 0x0, symName: __ZNKSt3__19allocatorIPP7ProcessE8max_sizeB8ue170006Ev, symObjAddr: 0x7820, symBinAddr: 0x1000104B0, symSize: 0x20 }
  - { offsetInCU: 0x115FB, offset: 0x2E4C2, size: 0x8, addend: 0x0, symName: __ZNSt3__122__allocator_destructorINS_9allocatorIP7ProcessEEEC2B8ue170006ERS4_m, symObjAddr: 0x7840, symBinAddr: 0x1000104D0, symSize: 0x30 }
  - { offsetInCU: 0x11641, offset: 0x2E508, size: 0x8, addend: 0x0, symName: __ZNSt3__110unique_ptrIPP7ProcessNS_22__allocator_destructorINS_9allocatorIS2_EEEEEC2B8ue170006ILb1EvEES3_NS_16__dependent_typeINS_27__unique_ptr_deleter_sfinaeIS7_EEXT_EE20__good_rval_ref_typeE, symObjAddr: 0x7870, symBinAddr: 0x100010500, symSize: 0x40 }
  - { offsetInCU: 0x11692, offset: 0x2E559, size: 0x8, addend: 0x0, symName: __ZNSt3__117__compressed_pairIPP7ProcessNS_22__allocator_destructorINS_9allocatorIS2_EEEEEC1B8ue170006IRS3_S7_EEOT_OT0_, symObjAddr: 0x78B0, symBinAddr: 0x100010540, symSize: 0x30 }
  - { offsetInCU: 0x116EA, offset: 0x2E5B1, size: 0x8, addend: 0x0, symName: __ZNSt3__117__compressed_pairIPP7ProcessNS_22__allocator_destructorINS_9allocatorIS2_EEEEEC2B8ue170006IRS3_S7_EEOT_OT0_, symObjAddr: 0x78E0, symBinAddr: 0x100010570, symSize: 0x40 }
  - { offsetInCU: 0x11742, offset: 0x2E609, size: 0x8, addend: 0x0, symName: __ZNSt3__122__compressed_pair_elemIPP7ProcessLi0ELb0EEC2B8ue170006IRS3_vEEOT_, symObjAddr: 0x7920, symBinAddr: 0x1000105B0, symSize: 0x20 }
  - { offsetInCU: 0x11784, offset: 0x2E64B, size: 0x8, addend: 0x0, symName: __ZNSt3__122__compressed_pair_elemINS_22__allocator_destructorINS_9allocatorIP7ProcessEEEELi1ELb0EEC2B8ue170006IS6_vEEOT_, symObjAddr: 0x7940, symBinAddr: 0x1000105D0, symSize: 0x30 }
  - { offsetInCU: 0x117C6, offset: 0x2E68D, size: 0x8, addend: 0x0, symName: __ZNKSt3__117__compressed_pairIPP7ProcessNS_22__allocator_destructorINS_9allocatorIS2_EEEEE5firstB8ue170006Ev, symObjAddr: 0x7970, symBinAddr: 0x100010600, symSize: 0x20 }
  - { offsetInCU: 0x117EC, offset: 0x2E6B3, size: 0x8, addend: 0x0, symName: __ZNKSt3__122__compressed_pair_elemIPP7ProcessLi0ELb0EE5__getB8ue170006Ev, symObjAddr: 0x7990, symBinAddr: 0x100010620, symSize: 0x10 }
  - { offsetInCU: 0x11812, offset: 0x2E6D9, size: 0x8, addend: 0x0, symName: __ZNSt3__117__compressed_pairIPP7ProcessNS_22__allocator_destructorINS_9allocatorIS2_EEEEE5firstB8ue170006Ev, symObjAddr: 0x79A0, symBinAddr: 0x100010630, symSize: 0x20 }
  - { offsetInCU: 0x11838, offset: 0x2E6FF, size: 0x8, addend: 0x0, symName: __ZNSt3__122__compressed_pair_elemIPP7ProcessLi0ELb0EE5__getB8ue170006Ev, symObjAddr: 0x79C0, symBinAddr: 0x100010650, symSize: 0x10 }
  - { offsetInCU: 0x1185E, offset: 0x2E725, size: 0x8, addend: 0x0, symName: __ZNSt3__117__compressed_pairIPPP7ProcessNS_9allocatorIS3_EEE5firstB8ue170006Ev, symObjAddr: 0x79D0, symBinAddr: 0x100010660, symSize: 0x20 }
  - { offsetInCU: 0x11884, offset: 0x2E74B, size: 0x8, addend: 0x0, symName: __ZNSt3__122__compressed_pair_elemIPPP7ProcessLi0ELb0EE5__getB8ue170006Ev, symObjAddr: 0x79F0, symBinAddr: 0x100010680, symSize: 0x10 }
  - { offsetInCU: 0x118AA, offset: 0x2E771, size: 0x8, addend: 0x0, symName: __ZNSt3__117__compressed_pairIPPP7ProcessRNS_9allocatorIS3_EEE5firstB8ue170006Ev, symObjAddr: 0x7A00, symBinAddr: 0x100010690, symSize: 0x20 }
  - { offsetInCU: 0x118D0, offset: 0x2E797, size: 0x8, addend: 0x0, symName: __ZNSt3__110unique_ptrIPP7ProcessNS_22__allocator_destructorINS_9allocatorIS2_EEEEED2B8ue170006Ev, symObjAddr: 0x7A20, symBinAddr: 0x1000106B0, symSize: 0x20 }
  - { offsetInCU: 0x118FA, offset: 0x2E7C1, size: 0x8, addend: 0x0, symName: __ZNSt3__110unique_ptrIPP7ProcessNS_22__allocator_destructorINS_9allocatorIS2_EEEEE5resetB8ue170006ES3_, symObjAddr: 0x7A40, symBinAddr: 0x1000106D0, symSize: 0x70 }
  - { offsetInCU: 0x1193E, offset: 0x2E805, size: 0x8, addend: 0x0, symName: __ZNSt3__117__compressed_pairIPP7ProcessNS_22__allocator_destructorINS_9allocatorIS2_EEEEE6secondB8ue170006Ev, symObjAddr: 0x7AB0, symBinAddr: 0x100010740, symSize: 0x20 }
  - { offsetInCU: 0x11964, offset: 0x2E82B, size: 0x8, addend: 0x0, symName: __ZNSt3__122__allocator_destructorINS_9allocatorIP7ProcessEEEclB8ue170006EPS3_, symObjAddr: 0x7AD0, symBinAddr: 0x100010760, symSize: 0x30 }
  - { offsetInCU: 0x11998, offset: 0x2E85F, size: 0x8, addend: 0x0, symName: __ZNSt3__122__compressed_pair_elemINS_22__allocator_destructorINS_9allocatorIP7ProcessEEEELi1ELb0EE5__getB8ue170006Ev, symObjAddr: 0x7B00, symBinAddr: 0x100010790, symSize: 0x10 }
  - { offsetInCU: 0x119BE, offset: 0x2E885, size: 0x8, addend: 0x0, symName: __ZNSt3__114__split_bufferIPP7ProcessRNS_9allocatorIS3_EEED2Ev, symObjAddr: 0x7B10, symBinAddr: 0x1000107A0, symSize: 0x70 }
  - { offsetInCU: 0x119EA, offset: 0x2E8B1, size: 0x8, addend: 0x0, symName: __ZNSt3__114__split_bufferIPP7ProcessRNS_9allocatorIS3_EEE5clearB8ue170006Ev, symObjAddr: 0x7B80, symBinAddr: 0x100010810, symSize: 0x20 }
  - { offsetInCU: 0x11A10, offset: 0x2E8D7, size: 0x8, addend: 0x0, symName: __ZNKSt3__114__split_bufferIPP7ProcessRNS_9allocatorIS3_EEE8capacityB8ue170006Ev, symObjAddr: 0x7BA0, symBinAddr: 0x100010830, symSize: 0x30 }
  - { offsetInCU: 0x11A36, offset: 0x2E8FD, size: 0x8, addend: 0x0, symName: __ZNSt3__114__split_bufferIPP7ProcessRNS_9allocatorIS3_EEE17__destruct_at_endB8ue170006EPS3_, symObjAddr: 0x7BD0, symBinAddr: 0x100010860, symSize: 0x30 }
  - { offsetInCU: 0x11A6A, offset: 0x2E931, size: 0x8, addend: 0x0, symName: __ZNSt3__114__split_bufferIPP7ProcessRNS_9allocatorIS3_EEE17__destruct_at_endB8ue170006EPS3_NS_17integral_constantIbLb0EEE, symObjAddr: 0x7C00, symBinAddr: 0x100010890, symSize: 0x80 }
  - { offsetInCU: 0x11AAA, offset: 0x2E971, size: 0x8, addend: 0x0, symName: __ZNKSt3__114__split_bufferIPP7ProcessRNS_9allocatorIS3_EEE9__end_capB8ue170006Ev, symObjAddr: 0x7C80, symBinAddr: 0x100010910, symSize: 0x20 }
  - { offsetInCU: 0x11AD0, offset: 0x2E997, size: 0x8, addend: 0x0, symName: __ZNKSt3__117__compressed_pairIPPP7ProcessRNS_9allocatorIS3_EEE5firstB8ue170006Ev, symObjAddr: 0x7CA0, symBinAddr: 0x100010930, symSize: 0x20 }
  - { offsetInCU: 0x11AF6, offset: 0x2E9BD, size: 0x8, addend: 0x0, symName: __ZNSt3__19allocatorIP7ProcessE9constructB8ue170006IS2_JRKS2_EEEvPT_DpOT0_, symObjAddr: 0x7CC0, symBinAddr: 0x100010950, symSize: 0x20 }
  - { offsetInCU: 0x11B4C, offset: 0x2EA13, size: 0x8, addend: 0x0, symName: __ZNSt3__113__atomic_baseIbLb0EE5storeB8ue170006EbNS_12memory_orderE, symObjAddr: 0x7CE0, symBinAddr: 0x100010970, symSize: 0x40 }
  - { offsetInCU: 0x11B8E, offset: 0x2EA55, size: 0x8, addend: 0x0, symName: __ZNKSt3__113__atomic_baseIbLb0EE4loadB8ue170006ENS_12memory_orderE, symObjAddr: 0x7E30, symBinAddr: 0x100010A20, symSize: 0x30 }
  - { offsetInCU: 0x11BC2, offset: 0x2EA89, size: 0x8, addend: 0x0, symName: __ZNSt3__15dequeIP7ProcessNS_9allocatorIS2_EEE5frontEv, symObjAddr: 0x7ED0, symBinAddr: 0x100010AC0, symSize: 0x50 }
  - { offsetInCU: 0x11BEA, offset: 0x2EAB1, size: 0x8, addend: 0x0, symName: __ZNSt3__15dequeIP7ProcessNS_9allocatorIS2_EEE9pop_frontEv, symObjAddr: 0x7F20, symBinAddr: 0x100010B10, symSize: 0xC0 }
  - { offsetInCU: 0x11C3F, offset: 0x2EB06, size: 0x8, addend: 0x0, symName: __ZNKSt3__15dequeIP7ProcessNS_9allocatorIS2_EEE23__annotate_shrink_frontB8ue170006Emm, symObjAddr: 0x7FE0, symBinAddr: 0x100010BD0, symSize: 0x70 }
  - { offsetInCU: 0x11C83, offset: 0x2EB4A, size: 0x8, addend: 0x0, symName: __ZNSt3__15dequeIP7ProcessNS_9allocatorIS2_EEE26__maybe_remove_front_spareB8ue170006Eb, symObjAddr: 0x8050, symBinAddr: 0x100010C40, symSize: 0xC0 }
  - { offsetInCU: 0x11CB8, offset: 0x2EB7F, size: 0x8, addend: 0x0, symName: __ZNKSt3__15dequeIP7ProcessNS_9allocatorIS2_EEE20__front_spare_blocksB8ue170006Ev, symObjAddr: 0x8110, symBinAddr: 0x100010D00, symSize: 0x20 }
  - { offsetInCU: 0x11CDE, offset: 0x2EBA5, size: 0x8, addend: 0x0, symName: '__ZNSt3__16threadC2IZN12CPUScheduler14FCFSSchedulingEvE3$_0JEvEEOT_DpOT0_', symObjAddr: 0x8130, symBinAddr: 0x100010D20, symSize: 0x140 }
  - { offsetInCU: 0x11D56, offset: 0x2EC1D, size: 0x8, addend: 0x0, symName: '__ZNSt3__15tupleIJNS_10unique_ptrINS_15__thread_structENS_14default_deleteIS2_EEEEZN12CPUScheduler14FCFSSchedulingEvE3$_0EEC1B8ue170006IJS5_S7_ELi0EEEDpOT_', symObjAddr: 0x82A0, symBinAddr: 0x100010E60, symSize: 0x30 }
  - { offsetInCU: 0x11E46, offset: 0x2ED0D, size: 0x8, addend: 0x0, symName: '__ZNSt3__110unique_ptrINS_5tupleIJNS0_INS_15__thread_structENS_14default_deleteIS2_EEEEZN12CPUScheduler14FCFSSchedulingEvE3$_0EEENS3_IS8_EEEC1B8ue170006ILb1EvEEPS8_', symObjAddr: 0x82D0, symBinAddr: 0x100010E90, symSize: 0x30 }
  - { offsetInCU: 0x11E89, offset: 0x2ED50, size: 0x8, addend: 0x0, symName: '__ZNKSt3__110unique_ptrINS_5tupleIJNS0_INS_15__thread_structENS_14default_deleteIS2_EEEEZN12CPUScheduler14FCFSSchedulingEvE3$_0EEENS3_IS8_EEE3getB8ue170006Ev', symObjAddr: 0x83D0, symBinAddr: 0x100010F60, symSize: 0x20 }
  - { offsetInCU: 0x11EAF, offset: 0x2ED76, size: 0x8, addend: 0x0, symName: '__ZNSt3__110unique_ptrINS_5tupleIJNS0_INS_15__thread_structENS_14default_deleteIS2_EEEEZN12CPUScheduler14FCFSSchedulingEvE3$_0EEENS3_IS8_EEE7releaseB8ue170006Ev', symObjAddr: 0x83F0, symBinAddr: 0x100010F80, symSize: 0x40 }
  - { offsetInCU: 0x11EE4, offset: 0x2EDAB, size: 0x8, addend: 0x0, symName: '__ZNSt3__110unique_ptrINS_5tupleIJNS0_INS_15__thread_structENS_14default_deleteIS2_EEEEZN12CPUScheduler14FCFSSchedulingEvE3$_0EEENS3_IS8_EEED1B8ue170006Ev', symObjAddr: 0x8430, symBinAddr: 0x100010FC0, symSize: 0x20 }
  - { offsetInCU: 0x11F13, offset: 0x2EDDA, size: 0x8, addend: 0x0, symName: '__ZNSt3__15tupleIJNS_10unique_ptrINS_15__thread_structENS_14default_deleteIS2_EEEEZN12CPUScheduler14FCFSSchedulingEvE3$_0EEC2B8ue170006IJS5_S7_ELi0EEEDpOT_', symObjAddr: 0x8550, symBinAddr: 0x100010FE0, symSize: 0x30 }
  - { offsetInCU: 0x11F72, offset: 0x2EE39, size: 0x8, addend: 0x0, symName: '__ZNSt3__112__tuple_implINS_15__tuple_indicesIJLm0ELm1EEEEJNS_10unique_ptrINS_15__thread_structENS_14default_deleteIS4_EEEEZN12CPUScheduler14FCFSSchedulingEvE3$_0EEC1B8ue170006IJLm0ELm1EEJS7_S9_EJEJEJS7_S9_EEENS1_IJXspT_EEEENS_13__tuple_typesIJDpT0_EEENS1_IJXspT1_EEEENSD_IJDpT2_EEEDpOT3_', symObjAddr: 0x8580, symBinAddr: 0x100011010, symSize: 0x30 }
  - { offsetInCU: 0x12028, offset: 0x2EEEF, size: 0x8, addend: 0x0, symName: '__ZNSt3__112__tuple_implINS_15__tuple_indicesIJLm0ELm1EEEEJNS_10unique_ptrINS_15__thread_structENS_14default_deleteIS4_EEEEZN12CPUScheduler14FCFSSchedulingEvE3$_0EEC2B8ue170006IJLm0ELm1EEJS7_S9_EJEJEJS7_S9_EEENS1_IJXspT_EEEENS_13__tuple_typesIJDpT0_EEENS1_IJXspT1_EEEENSD_IJDpT2_EEEDpOT3_', symObjAddr: 0x85B0, symBinAddr: 0x100011040, symSize: 0x40 }
  - { offsetInCU: 0x120DE, offset: 0x2EFA5, size: 0x8, addend: 0x0, symName: '__ZNSt3__112__tuple_leafILm1EZN12CPUScheduler14FCFSSchedulingEvE3$_0Lb0EEC2B8ue170006IS2_vEEOT_', symObjAddr: 0x8620, symBinAddr: 0x100011080, symSize: 0x20 }
  - { offsetInCU: 0x12121, offset: 0x2EFE8, size: 0x8, addend: 0x0, symName: '__ZNSt3__110unique_ptrINS_5tupleIJNS0_INS_15__thread_structENS_14default_deleteIS2_EEEEZN12CPUScheduler14FCFSSchedulingEvE3$_0EEENS3_IS8_EEEC2B8ue170006ILb1EvEEPS8_', symObjAddr: 0x8830, symBinAddr: 0x1000110A0, symSize: 0x40 }
  - { offsetInCU: 0x12164, offset: 0x2F02B, size: 0x8, addend: 0x0, symName: '__ZNSt3__117__compressed_pairIPNS_5tupleIJNS_10unique_ptrINS_15__thread_structENS_14default_deleteIS3_EEEEZN12CPUScheduler14FCFSSchedulingEvE3$_0EEENS4_IS9_EEEC1B8ue170006IRSA_NS_16__value_init_tagEEEOT_OT0_', symObjAddr: 0x8870, symBinAddr: 0x1000110E0, symSize: 0x30 }
  - { offsetInCU: 0x121BC, offset: 0x2F083, size: 0x8, addend: 0x0, symName: '__ZNSt3__117__compressed_pairIPNS_5tupleIJNS_10unique_ptrINS_15__thread_structENS_14default_deleteIS3_EEEEZN12CPUScheduler14FCFSSchedulingEvE3$_0EEENS4_IS9_EEEC2B8ue170006IRSA_NS_16__value_init_tagEEEOT_OT0_', symObjAddr: 0x88A0, symBinAddr: 0x100011110, symSize: 0x40 }
  - { offsetInCU: 0x12214, offset: 0x2F0DB, size: 0x8, addend: 0x0, symName: '__ZNSt3__122__compressed_pair_elemIPNS_5tupleIJNS_10unique_ptrINS_15__thread_structENS_14default_deleteIS3_EEEEZN12CPUScheduler14FCFSSchedulingEvE3$_0EEELi0ELb0EEC2B8ue170006IRSA_vEEOT_', symObjAddr: 0x88E0, symBinAddr: 0x100011150, symSize: 0x20 }
  - { offsetInCU: 0x12256, offset: 0x2F11D, size: 0x8, addend: 0x0, symName: '__ZNSt3__122__compressed_pair_elemINS_14default_deleteINS_5tupleIJNS_10unique_ptrINS_15__thread_structENS1_IS4_EEEEZN12CPUScheduler14FCFSSchedulingEvE3$_0EEEEELi1ELb1EEC2B8ue170006ENS_16__value_init_tagE', symObjAddr: 0x8900, symBinAddr: 0x100011170, symSize: 0x10 }
  - { offsetInCU: 0x1228F, offset: 0x2F156, size: 0x8, addend: 0x0, symName: '__ZZN12CPUScheduler14FCFSSchedulingEvENK3$_0clEv', symObjAddr: 0x8A10, symBinAddr: 0x100011210, symSize: 0x20 }
  - { offsetInCU: 0x122B9, offset: 0x2F180, size: 0x8, addend: 0x0, symName: '__ZNSt3__112__tuple_leafILm1EZN12CPUScheduler14FCFSSchedulingEvE3$_0Lb0EE3getB8ue170006Ev', symObjAddr: 0x8A30, symBinAddr: 0x100011230, symSize: 0x10 }
  - { offsetInCU: 0x122DF, offset: 0x2F1A6, size: 0x8, addend: 0x0, symName: '__ZNKSt3__117__compressed_pairIPNS_5tupleIJNS_10unique_ptrINS_15__thread_structENS_14default_deleteIS3_EEEEZN12CPUScheduler14FCFSSchedulingEvE3$_0EEENS4_IS9_EEE5firstB8ue170006Ev', symObjAddr: 0x8A40, symBinAddr: 0x100011240, symSize: 0x20 }
  - { offsetInCU: 0x12305, offset: 0x2F1CC, size: 0x8, addend: 0x0, symName: '__ZNKSt3__122__compressed_pair_elemIPNS_5tupleIJNS_10unique_ptrINS_15__thread_structENS_14default_deleteIS3_EEEEZN12CPUScheduler14FCFSSchedulingEvE3$_0EEELi0ELb0EE5__getB8ue170006Ev', symObjAddr: 0x8A60, symBinAddr: 0x100011260, symSize: 0x10 }
  - { offsetInCU: 0x1232B, offset: 0x2F1F2, size: 0x8, addend: 0x0, symName: '__ZNSt3__117__compressed_pairIPNS_5tupleIJNS_10unique_ptrINS_15__thread_structENS_14default_deleteIS3_EEEEZN12CPUScheduler14FCFSSchedulingEvE3$_0EEENS4_IS9_EEE5firstB8ue170006Ev', symObjAddr: 0x8A70, symBinAddr: 0x100011270, symSize: 0x20 }
  - { offsetInCU: 0x12351, offset: 0x2F218, size: 0x8, addend: 0x0, symName: '__ZNSt3__122__compressed_pair_elemIPNS_5tupleIJNS_10unique_ptrINS_15__thread_structENS_14default_deleteIS3_EEEEZN12CPUScheduler14FCFSSchedulingEvE3$_0EEELi0ELb0EE5__getB8ue170006Ev', symObjAddr: 0x8A90, symBinAddr: 0x100011290, symSize: 0x10 }
  - { offsetInCU: 0x12377, offset: 0x2F23E, size: 0x8, addend: 0x0, symName: '__ZNSt3__110unique_ptrINS_5tupleIJNS0_INS_15__thread_structENS_14default_deleteIS2_EEEEZN12CPUScheduler14FCFSSchedulingEvE3$_0EEENS3_IS8_EEED2B8ue170006Ev', symObjAddr: 0x8AA0, symBinAddr: 0x1000112A0, symSize: 0x20 }
  - { offsetInCU: 0x123A1, offset: 0x2F268, size: 0x8, addend: 0x0, symName: '__ZNSt3__110unique_ptrINS_5tupleIJNS0_INS_15__thread_structENS_14default_deleteIS2_EEEEZN12CPUScheduler14FCFSSchedulingEvE3$_0EEENS3_IS8_EEE5resetB8ue170006EPS8_', symObjAddr: 0x8AC0, symBinAddr: 0x1000112C0, symSize: 0x70 }
  - { offsetInCU: 0x123E5, offset: 0x2F2AC, size: 0x8, addend: 0x0, symName: '__ZNSt3__117__compressed_pairIPNS_5tupleIJNS_10unique_ptrINS_15__thread_structENS_14default_deleteIS3_EEEEZN12CPUScheduler14FCFSSchedulingEvE3$_0EEENS4_IS9_EEE6secondB8ue170006Ev', symObjAddr: 0x8B30, symBinAddr: 0x100011330, symSize: 0x20 }
  - { offsetInCU: 0x1240B, offset: 0x2F2D2, size: 0x8, addend: 0x0, symName: '__ZNKSt3__114default_deleteINS_5tupleIJNS_10unique_ptrINS_15__thread_structENS0_IS3_EEEEZN12CPUScheduler14FCFSSchedulingEvE3$_0EEEEclB8ue170006EPS8_', symObjAddr: 0x8B50, symBinAddr: 0x100011350, symSize: 0x40 }
  - { offsetInCU: 0x1243F, offset: 0x2F306, size: 0x8, addend: 0x0, symName: '__ZNSt3__122__compressed_pair_elemINS_14default_deleteINS_5tupleIJNS_10unique_ptrINS_15__thread_structENS1_IS4_EEEEZN12CPUScheduler14FCFSSchedulingEvE3$_0EEEEELi1ELb1EE5__getB8ue170006Ev', symObjAddr: 0x8B90, symBinAddr: 0x100011390, symSize: 0x10 }
  - { offsetInCU: 0x12465, offset: 0x2F32C, size: 0x8, addend: 0x0, symName: '__ZNSt3__15tupleIJNS_10unique_ptrINS_15__thread_structENS_14default_deleteIS2_EEEEZN12CPUScheduler14FCFSSchedulingEvE3$_0EED1Ev', symObjAddr: 0x8BA0, symBinAddr: 0x1000113A0, symSize: 0x20 }
  - { offsetInCU: 0x12492, offset: 0x2F359, size: 0x8, addend: 0x0, symName: '__ZNSt3__15tupleIJNS_10unique_ptrINS_15__thread_structENS_14default_deleteIS2_EEEEZN12CPUScheduler14FCFSSchedulingEvE3$_0EED2Ev', symObjAddr: 0x8BC0, symBinAddr: 0x1000113C0, symSize: 0x20 }
  - { offsetInCU: 0x124BF, offset: 0x2F386, size: 0x8, addend: 0x0, symName: '__ZNSt3__112__tuple_implINS_15__tuple_indicesIJLm0ELm1EEEEJNS_10unique_ptrINS_15__thread_structENS_14default_deleteIS4_EEEEZN12CPUScheduler14FCFSSchedulingEvE3$_0EED1Ev', symObjAddr: 0x8BE0, symBinAddr: 0x1000113E0, symSize: 0x20 }
  - { offsetInCU: 0x124EC, offset: 0x2F3B3, size: 0x8, addend: 0x0, symName: '__ZNSt3__112__tuple_implINS_15__tuple_indicesIJLm0ELm1EEEEJNS_10unique_ptrINS_15__thread_structENS_14default_deleteIS4_EEEEZN12CPUScheduler14FCFSSchedulingEvE3$_0EED2Ev', symObjAddr: 0x8C00, symBinAddr: 0x100011400, symSize: 0x20 }
  - { offsetInCU: 0x12519, offset: 0x2F3E0, size: 0x8, addend: 0x0, symName: __ZNSt3__16threadC2IM9CPUWorkerFvvEJRPS2_EvEEOT_DpOT0_, symObjAddr: 0x8D10, symBinAddr: 0x100011420, symSize: 0x150 }
  - { offsetInCU: 0x125A4, offset: 0x2F46B, size: 0x8, addend: 0x0, symName: __ZNSt3__15tupleIJNS_10unique_ptrINS_15__thread_structENS_14default_deleteIS2_EEEEM9CPUWorkerFvvEPS6_EEC1B8ue170006IJS5_S8_RS9_ELi0EEEDpOT_, symObjAddr: 0x8E60, symBinAddr: 0x100011570, symSize: 0x40 }
  - { offsetInCU: 0x126A8, offset: 0x2F56F, size: 0x8, addend: 0x0, symName: __ZNSt3__110unique_ptrINS_5tupleIJNS0_INS_15__thread_structENS_14default_deleteIS2_EEEEM9CPUWorkerFvvEPS6_EEENS3_ISA_EEEC1B8ue170006ILb1EvEEPSA_, symObjAddr: 0x8EA0, symBinAddr: 0x1000115B0, symSize: 0x30 }
  - { offsetInCU: 0x126EB, offset: 0x2F5B2, size: 0x8, addend: 0x0, symName: __ZNKSt3__110unique_ptrINS_5tupleIJNS0_INS_15__thread_structENS_14default_deleteIS2_EEEEM9CPUWorkerFvvEPS6_EEENS3_ISA_EEE3getB8ue170006Ev, symObjAddr: 0x8F70, symBinAddr: 0x100011680, symSize: 0x20 }
  - { offsetInCU: 0x12711, offset: 0x2F5D8, size: 0x8, addend: 0x0, symName: __ZNSt3__110unique_ptrINS_5tupleIJNS0_INS_15__thread_structENS_14default_deleteIS2_EEEEM9CPUWorkerFvvEPS6_EEENS3_ISA_EEE7releaseB8ue170006Ev, symObjAddr: 0x8F90, symBinAddr: 0x1000116A0, symSize: 0x40 }
  - { offsetInCU: 0x12746, offset: 0x2F60D, size: 0x8, addend: 0x0, symName: __ZNSt3__110unique_ptrINS_5tupleIJNS0_INS_15__thread_structENS_14default_deleteIS2_EEEEM9CPUWorkerFvvEPS6_EEENS3_ISA_EEED1B8ue170006Ev, symObjAddr: 0x8FD0, symBinAddr: 0x1000116E0, symSize: 0x20 }
  - { offsetInCU: 0x12770, offset: 0x2F637, size: 0x8, addend: 0x0, symName: __ZNSt3__15tupleIJNS_10unique_ptrINS_15__thread_structENS_14default_deleteIS2_EEEEM9CPUWorkerFvvEPS6_EEC2B8ue170006IJS5_S8_RS9_ELi0EEEDpOT_, symObjAddr: 0x8FF0, symBinAddr: 0x100011700, symSize: 0x40 }
  - { offsetInCU: 0x127E3, offset: 0x2F6AA, size: 0x8, addend: 0x0, symName: __ZNSt3__112__tuple_implINS_15__tuple_indicesIJLm0ELm1ELm2EEEEJNS_10unique_ptrINS_15__thread_structENS_14default_deleteIS4_EEEEM9CPUWorkerFvvEPS8_EEC1B8ue170006IJLm0ELm1ELm2EEJS7_SA_SB_EJEJEJS7_SA_RSB_EEENS1_IJXspT_EEEENS_13__tuple_typesIJDpT0_EEENS1_IJXspT1_EEEENSG_IJDpT2_EEEDpOT3_, symObjAddr: 0x9030, symBinAddr: 0x100011740, symSize: 0x40 }
  - { offsetInCU: 0x128B8, offset: 0x2F77F, size: 0x8, addend: 0x0, symName: __ZNSt3__112__tuple_implINS_15__tuple_indicesIJLm0ELm1ELm2EEEEJNS_10unique_ptrINS_15__thread_structENS_14default_deleteIS4_EEEEM9CPUWorkerFvvEPS8_EEC2B8ue170006IJLm0ELm1ELm2EEJS7_SA_SB_EJEJEJS7_SA_RSB_EEENS1_IJXspT_EEEENS_13__tuple_typesIJDpT0_EEENS1_IJXspT1_EEEENSG_IJDpT2_EEEDpOT3_, symObjAddr: 0x9070, symBinAddr: 0x100011780, symSize: 0x60 }
  - { offsetInCU: 0x1298D, offset: 0x2F854, size: 0x8, addend: 0x0, symName: __ZNSt3__112__tuple_leafILm1EM9CPUWorkerFvvELb0EEC2B8ue170006IS3_vEEOT_, symObjAddr: 0x90D0, symBinAddr: 0x1000117E0, symSize: 0x30 }
  - { offsetInCU: 0x129D0, offset: 0x2F897, size: 0x8, addend: 0x0, symName: __ZNSt3__112__tuple_leafILm2EP9CPUWorkerLb0EEC2B8ue170006IRS2_vEEOT_, symObjAddr: 0x9100, symBinAddr: 0x100011810, symSize: 0x20 }
  - { offsetInCU: 0x12A13, offset: 0x2F8DA, size: 0x8, addend: 0x0, symName: __ZNSt3__110unique_ptrINS_5tupleIJNS0_INS_15__thread_structENS_14default_deleteIS2_EEEEM9CPUWorkerFvvEPS6_EEENS3_ISA_EEEC2B8ue170006ILb1EvEEPSA_, symObjAddr: 0x9120, symBinAddr: 0x100011830, symSize: 0x40 }
  - { offsetInCU: 0x12A56, offset: 0x2F91D, size: 0x8, addend: 0x0, symName: __ZNSt3__117__compressed_pairIPNS_5tupleIJNS_10unique_ptrINS_15__thread_structENS_14default_deleteIS3_EEEEM9CPUWorkerFvvEPS7_EEENS4_ISB_EEEC1B8ue170006IRSC_NS_16__value_init_tagEEEOT_OT0_, symObjAddr: 0x9160, symBinAddr: 0x100011870, symSize: 0x30 }
  - { offsetInCU: 0x12AAE, offset: 0x2F975, size: 0x8, addend: 0x0, symName: __ZNSt3__117__compressed_pairIPNS_5tupleIJNS_10unique_ptrINS_15__thread_structENS_14default_deleteIS3_EEEEM9CPUWorkerFvvEPS7_EEENS4_ISB_EEEC2B8ue170006IRSC_NS_16__value_init_tagEEEOT_OT0_, symObjAddr: 0x9190, symBinAddr: 0x1000118A0, symSize: 0x40 }
  - { offsetInCU: 0x12B06, offset: 0x2F9CD, size: 0x8, addend: 0x0, symName: __ZNSt3__122__compressed_pair_elemIPNS_5tupleIJNS_10unique_ptrINS_15__thread_structENS_14default_deleteIS3_EEEEM9CPUWorkerFvvEPS7_EEELi0ELb0EEC2B8ue170006IRSC_vEEOT_, symObjAddr: 0x91D0, symBinAddr: 0x1000118E0, symSize: 0x20 }
  - { offsetInCU: 0x12B48, offset: 0x2FA0F, size: 0x8, addend: 0x0, symName: __ZNSt3__122__compressed_pair_elemINS_14default_deleteINS_5tupleIJNS_10unique_ptrINS_15__thread_structENS1_IS4_EEEEM9CPUWorkerFvvEPS7_EEEEELi1ELb1EEC2B8ue170006ENS_16__value_init_tagE, symObjAddr: 0x91F0, symBinAddr: 0x100011900, symSize: 0x10 }
  - { offsetInCU: 0x12B7C, offset: 0x2FA43, size: 0x8, addend: 0x0, symName: __ZNSt3__112__tuple_leafILm1EM9CPUWorkerFvvELb0EE3getB8ue170006Ev, symObjAddr: 0x9310, symBinAddr: 0x100011A20, symSize: 0x10 }
  - { offsetInCU: 0x12BA2, offset: 0x2FA69, size: 0x8, addend: 0x0, symName: __ZNSt3__112__tuple_leafILm2EP9CPUWorkerLb0EE3getB8ue170006Ev, symObjAddr: 0x9320, symBinAddr: 0x100011A30, symSize: 0x10 }
  - { offsetInCU: 0x12BC8, offset: 0x2FA8F, size: 0x8, addend: 0x0, symName: __ZNKSt3__117__compressed_pairIPNS_5tupleIJNS_10unique_ptrINS_15__thread_structENS_14default_deleteIS3_EEEEM9CPUWorkerFvvEPS7_EEENS4_ISB_EEE5firstB8ue170006Ev, symObjAddr: 0x9330, symBinAddr: 0x100011A40, symSize: 0x20 }
  - { offsetInCU: 0x12BEE, offset: 0x2FAB5, size: 0x8, addend: 0x0, symName: __ZNKSt3__122__compressed_pair_elemIPNS_5tupleIJNS_10unique_ptrINS_15__thread_structENS_14default_deleteIS3_EEEEM9CPUWorkerFvvEPS7_EEELi0ELb0EE5__getB8ue170006Ev, symObjAddr: 0x9350, symBinAddr: 0x100011A60, symSize: 0x10 }
  - { offsetInCU: 0x12C14, offset: 0x2FADB, size: 0x8, addend: 0x0, symName: __ZNSt3__117__compressed_pairIPNS_5tupleIJNS_10unique_ptrINS_15__thread_structENS_14default_deleteIS3_EEEEM9CPUWorkerFvvEPS7_EEENS4_ISB_EEE5firstB8ue170006Ev, symObjAddr: 0x9360, symBinAddr: 0x100011A70, symSize: 0x20 }
  - { offsetInCU: 0x12C3A, offset: 0x2FB01, size: 0x8, addend: 0x0, symName: __ZNSt3__122__compressed_pair_elemIPNS_5tupleIJNS_10unique_ptrINS_15__thread_structENS_14default_deleteIS3_EEEEM9CPUWorkerFvvEPS7_EEELi0ELb0EE5__getB8ue170006Ev, symObjAddr: 0x9380, symBinAddr: 0x100011A90, symSize: 0x10 }
  - { offsetInCU: 0x12C60, offset: 0x2FB27, size: 0x8, addend: 0x0, symName: __ZNSt3__110unique_ptrINS_5tupleIJNS0_INS_15__thread_structENS_14default_deleteIS2_EEEEM9CPUWorkerFvvEPS6_EEENS3_ISA_EEED2B8ue170006Ev, symObjAddr: 0x9390, symBinAddr: 0x100011AA0, symSize: 0x20 }
  - { offsetInCU: 0x12C8A, offset: 0x2FB51, size: 0x8, addend: 0x0, symName: __ZNSt3__110unique_ptrINS_5tupleIJNS0_INS_15__thread_structENS_14default_deleteIS2_EEEEM9CPUWorkerFvvEPS6_EEENS3_ISA_EEE5resetB8ue170006EPSA_, symObjAddr: 0x93B0, symBinAddr: 0x100011AC0, symSize: 0x70 }
  - { offsetInCU: 0x12CCE, offset: 0x2FB95, size: 0x8, addend: 0x0, symName: __ZNSt3__117__compressed_pairIPNS_5tupleIJNS_10unique_ptrINS_15__thread_structENS_14default_deleteIS3_EEEEM9CPUWorkerFvvEPS7_EEENS4_ISB_EEE6secondB8ue170006Ev, symObjAddr: 0x9420, symBinAddr: 0x100011B30, symSize: 0x20 }
  - { offsetInCU: 0x12CF4, offset: 0x2FBBB, size: 0x8, addend: 0x0, symName: __ZNKSt3__114default_deleteINS_5tupleIJNS_10unique_ptrINS_15__thread_structENS0_IS3_EEEEM9CPUWorkerFvvEPS6_EEEEclB8ue170006EPSA_, symObjAddr: 0x9440, symBinAddr: 0x100011B50, symSize: 0x40 }
  - { offsetInCU: 0x12D28, offset: 0x2FBEF, size: 0x8, addend: 0x0, symName: __ZNSt3__122__compressed_pair_elemINS_14default_deleteINS_5tupleIJNS_10unique_ptrINS_15__thread_structENS1_IS4_EEEEM9CPUWorkerFvvEPS7_EEEEELi1ELb1EE5__getB8ue170006Ev, symObjAddr: 0x9480, symBinAddr: 0x100011B90, symSize: 0x10 }
  - { offsetInCU: 0x12D4E, offset: 0x2FC15, size: 0x8, addend: 0x0, symName: __ZNSt3__15tupleIJNS_10unique_ptrINS_15__thread_structENS_14default_deleteIS2_EEEEM9CPUWorkerFvvEPS6_EED1Ev, symObjAddr: 0x9490, symBinAddr: 0x100011BA0, symSize: 0x20 }
  - { offsetInCU: 0x12D7B, offset: 0x2FC42, size: 0x8, addend: 0x0, symName: __ZNSt3__15tupleIJNS_10unique_ptrINS_15__thread_structENS_14default_deleteIS2_EEEEM9CPUWorkerFvvEPS6_EED2Ev, symObjAddr: 0x94B0, symBinAddr: 0x100011BC0, symSize: 0x20 }
  - { offsetInCU: 0x12DA8, offset: 0x2FC6F, size: 0x8, addend: 0x0, symName: __ZNSt3__112__tuple_implINS_15__tuple_indicesIJLm0ELm1ELm2EEEEJNS_10unique_ptrINS_15__thread_structENS_14default_deleteIS4_EEEEM9CPUWorkerFvvEPS8_EED1Ev, symObjAddr: 0x94D0, symBinAddr: 0x100011BE0, symSize: 0x20 }
  - { offsetInCU: 0x12DD5, offset: 0x2FC9C, size: 0x8, addend: 0x0, symName: __ZNSt3__112__tuple_implINS_15__tuple_indicesIJLm0ELm1ELm2EEEEJNS_10unique_ptrINS_15__thread_structENS_14default_deleteIS4_EEEEM9CPUWorkerFvvEPS8_EED2Ev, symObjAddr: 0x94F0, symBinAddr: 0x100011C00, symSize: 0x1B }
  - { offsetInCU: 0x26, offset: 0x2FE9D, size: 0x8, addend: 0x0, symName: __ZN9CPUWorkerC2Eix, symObjAddr: 0x0, symBinAddr: 0x100011C20, symSize: 0x70 }
  - { offsetInCU: 0x4BB7, offset: 0x34A2E, size: 0x8, addend: 0x0, symName: __ZN9CPUWorkerC2Eix, symObjAddr: 0x0, symBinAddr: 0x100011C20, symSize: 0x70 }
  - { offsetInCU: 0x4BFF, offset: 0x34A76, size: 0x8, addend: 0x0, symName: __ZNSt3__118condition_variableC1B8ue170006Ev, symObjAddr: 0x90, symBinAddr: 0x100011C90, symSize: 0x20 }
  - { offsetInCU: 0x4C29, offset: 0x34AA0, size: 0x8, addend: 0x0, symName: __ZN9CPUWorkerC1Eix, symObjAddr: 0xF0, symBinAddr: 0x100011CB0, symSize: 0x30 }
  - { offsetInCU: 0x4C71, offset: 0x34AE8, size: 0x8, addend: 0x0, symName: __ZN9CPUWorker10setProcessEP7Process, symObjAddr: 0x120, symBinAddr: 0x100011CE0, symSize: 0xB0 }
  - { offsetInCU: 0x4CB5, offset: 0x34B2C, size: 0x8, addend: 0x0, symName: __ZNSt3__111unique_lockINS_5mutexEEC1B8ue170006ERS1_, symObjAddr: 0x1D0, symBinAddr: 0x100011D90, symSize: 0x30 }
  - { offsetInCU: 0x4CED, offset: 0x34B64, size: 0x8, addend: 0x0, symName: __ZNSt3__111unique_lockINS_5mutexEED1B8ue170006Ev, symObjAddr: 0x230, symBinAddr: 0x100011DC0, symSize: 0x20 }
  - { offsetInCU: 0x4D17, offset: 0x34B8E, size: 0x8, addend: 0x0, symName: __ZN9CPUWorker11startWorkerEv, symObjAddr: 0x250, symBinAddr: 0x100011DE0, symSize: 0x190 }
  - { offsetInCU: 0x4D77, offset: 0x34BEE, size: 0x8, addend: 0x0, symName: __ZN9CPUWorker10hasProcessEv, symObjAddr: 0x430, symBinAddr: 0x100011F70, symSize: 0x50 }
  - { offsetInCU: 0x4DAD, offset: 0x34C24, size: 0x8, addend: 0x0, symName: __ZN9CPUWorker10getProcessEv, symObjAddr: 0x480, symBinAddr: 0x100011FC0, symSize: 0x40 }
  - { offsetInCU: 0x4DE3, offset: 0x34C5A, size: 0x8, addend: 0x0, symName: __ZNSt3__118condition_variableC2B8ue170006Ev, symObjAddr: 0x4F0, symBinAddr: 0x100012000, symSize: 0x30 }
  - { offsetInCU: 0x4E0D, offset: 0x34C84, size: 0x8, addend: 0x0, symName: __ZNSt3__111unique_lockINS_5mutexEEC2B8ue170006ERS1_, symObjAddr: 0x5D0, symBinAddr: 0x100012030, symSize: 0x30 }
  - { offsetInCU: 0x4E45, offset: 0x34CBC, size: 0x8, addend: 0x0, symName: __ZNSt3__111unique_lockINS_5mutexEED2B8ue170006Ev, symObjAddr: 0x600, symBinAddr: 0x100012060, symSize: 0x30 }
  - { offsetInCU: 0x39, offset: 0x34D2E, size: 0x8, addend: 0x0, symName: __ZN14ProcessManager14sharedInstanceE, symObjAddr: 0x33A38, symBinAddr: 0x100019010, symSize: 0x0 }
  - { offsetInCU: 0x5D17, offset: 0x3AA0C, size: 0x8, addend: 0x0, symName: '__ZNSt3__17find_ifB8ue170006INS_11__wrap_iterIPKP7ProcessEEZNK14ProcessManager14displayProcessENS_12basic_stringIcNS_11char_traitsIcEENS_9allocatorIcEEEEE3$_0EET_SF_SF_T0_', symObjAddr: 0x510, symBinAddr: 0x1000125A0, symSize: 0x80 }
  - { offsetInCU: 0x5D72, offset: 0x3AA67, size: 0x8, addend: 0x0, symName: '__ZNSt3__17find_ifB8ue170006INS_11__wrap_iterIPKP7ProcessEEZNK14ProcessManager14displayProcessENS_12basic_stringIcNS_11char_traitsIcEENS_9allocatorIcEEEEE3$_1EET_SF_SF_T0_', symObjAddr: 0x5F0, symBinAddr: 0x100012680, symSize: 0x80 }
  - { offsetInCU: 0x5DCD, offset: 0x3AAC2, size: 0x8, addend: 0x0, symName: __ZNSt3__1neB8ue170006IPKP7ProcessEEbRKNS_11__wrap_iterIT_EES9_, symObjAddr: 0x670, symBinAddr: 0x100012700, symSize: 0x30 }
  - { offsetInCU: 0x5E10, offset: 0x3AB05, size: 0x8, addend: 0x0, symName: __ZNSt3__1lsB8ue170006IcNS_11char_traitsIcEENS_9allocatorIcEEEERNS_13basic_ostreamIT_T0_EES9_RKNS_12basic_stringIS6_S7_T1_EE, symObjAddr: 0x700, symBinAddr: 0x100012750, symSize: 0x50 }
  - { offsetInCU: 0x5E68, offset: 0x3AB5D, size: 0x8, addend: 0x0, symName: __ZNSt3__1neB8ue170006IPP7ProcessEEbRKNS_11__wrap_iterIT_EES8_, symObjAddr: 0xA20, symBinAddr: 0x100012A00, symSize: 0x30 }
  - { offsetInCU: 0x5EAB, offset: 0x3ABA0, size: 0x8, addend: 0x0, symName: '__ZNSt3__17find_ifB8ue170006INS_11__wrap_iterIPP7ProcessEEZN14ProcessManager14moveToFinishedERKNS_12basic_stringIcNS_11char_traitsIcEENS_9allocatorIcEEEEE3$_2EET_SG_SG_T0_', symObjAddr: 0xDD0, symBinAddr: 0x100012DB0, symSize: 0x80 }
  - { offsetInCU: 0x5F06, offset: 0x3ABFB, size: 0x8, addend: 0x0, symName: __ZNSt3__1eqB8ue170006IPKP7ProcessEEbRKNS_11__wrap_iterIT_EES9_, symObjAddr: 0xF70, symBinAddr: 0x100012F50, symSize: 0x40 }
  - { offsetInCU: 0x5F49, offset: 0x3AC3E, size: 0x8, addend: 0x0, symName: __ZNSt3__1eqB8ue170006IPP7ProcessEEbRKNS_11__wrap_iterIT_EES8_, symObjAddr: 0xFD0, symBinAddr: 0x100012FB0, symSize: 0x40 }
  - { offsetInCU: 0x5F8C, offset: 0x3AC81, size: 0x8, addend: 0x0, symName: __ZNSt3__119__allocate_at_leastB8ue170006INS_9allocatorIP7ProcessEEEENS_19__allocation_resultINS_16allocator_traitsIT_E7pointerEEERS7_m, symObjAddr: 0x1F80, symBinAddr: 0x100013AE0, symSize: 0x40 }
  - { offsetInCU: 0x5FCF, offset: 0x3ACC4, size: 0x8, addend: 0x0, symName: __ZNSt3__142__uninitialized_allocator_move_if_noexceptB8ue170006INS_9allocatorIP7ProcessEENS_16reverse_iteratorIPS3_EES7_S3_vEET1_RT_T0_SB_S8_, symObjAddr: 0x2190, symBinAddr: 0x100013C20, symSize: 0x70 }
  - { offsetInCU: 0x604C, offset: 0x3AD41, size: 0x8, addend: 0x0, symName: __ZNSt3__14swapB8ue170006IPP7ProcessEENS_9enable_ifIXaasr21is_move_constructibleIT_EE5valuesr18is_move_assignableIS5_EE5valueEvE4typeERS5_S8_, symObjAddr: 0x2250, symBinAddr: 0x100013CE0, symSize: 0x40 }
  - { offsetInCU: 0x609D, offset: 0x3AD92, size: 0x8, addend: 0x0, symName: __ZNSt3__14moveB8ue170006INS_16reverse_iteratorIPP7ProcessEES5_EET0_T_S7_S6_, symObjAddr: 0x2340, symBinAddr: 0x100013DD0, symSize: 0x80 }
  - { offsetInCU: 0x60F7, offset: 0x3ADEC, size: 0x8, addend: 0x0, symName: __ZNSt3__16__moveB8ue170006INS_17_ClassicAlgPolicyENS_16reverse_iteratorIPP7ProcessEES6_S6_EENS_4pairIT0_T2_EES8_T1_S9_, symObjAddr: 0x23C0, symBinAddr: 0x100013E50, symSize: 0x90 }
  - { offsetInCU: 0x6163, offset: 0x3AE58, size: 0x8, addend: 0x0, symName: __ZNSt3__123__dispatch_copy_or_moveB8ue170006INS_17_ClassicAlgPolicyENS_11__move_loopIS1_EENS_14__move_trivialENS_16reverse_iteratorIPP7ProcessEES9_S9_EENS_4pairIT2_T4_EESB_T3_SC_, symObjAddr: 0x2450, symBinAddr: 0x100013EE0, symSize: 0x90 }
  - { offsetInCU: 0x61E1, offset: 0x3AED6, size: 0x8, addend: 0x0, symName: __ZNSt3__121__unwrap_and_dispatchB8ue170006INS_10__overloadINS_11__move_loopINS_17_ClassicAlgPolicyEEENS_14__move_trivialEEENS_16reverse_iteratorIPP7ProcessEESB_SB_Li0EEENS_4pairIT0_T2_EESD_T1_SE_, symObjAddr: 0x24E0, symBinAddr: 0x100013F70, symSize: 0x210 }
  - { offsetInCU: 0x6271, offset: 0x3AF66, size: 0x8, addend: 0x0, symName: __ZNSt3__114__unwrap_rangeB8ue170006INS_16reverse_iteratorIPP7ProcessEES5_EENS_4pairIT0_S7_EET_S9_, symObjAddr: 0x26F0, symBinAddr: 0x100014180, symSize: 0x90 }
  - { offsetInCU: 0x63E3, offset: 0x3B0D8, size: 0x8, addend: 0x0, symName: __ZNSt3__113__unwrap_iterB8ue170006INS_16reverse_iteratorIPP7ProcessEENS_18__unwrap_iter_implIS5_Lb0EEELi0EEEDTclsrT0_8__unwrapclsr3stdE7declvalIT_EEEES9_, symObjAddr: 0x2820, symBinAddr: 0x1000142B0, symSize: 0x40 }
  - { offsetInCU: 0x6428, offset: 0x3B11D, size: 0x8, addend: 0x0, symName: __ZNSt3__19make_pairB8ue170006INS_16reverse_iteratorIPP7ProcessEES5_EENS_4pairINS_18__unwrap_ref_decayIT_E4typeENS7_IT0_E4typeEEEOS8_OSB_, symObjAddr: 0x2860, symBinAddr: 0x1000142F0, symSize: 0x30 }
  - { offsetInCU: 0x6477, offset: 0x3B16C, size: 0x8, addend: 0x0, symName: __ZNSt3__114__rewrap_rangeB8ue170006INS_16reverse_iteratorIPP7ProcessEES5_EET_S6_T0_, symObjAddr: 0x2890, symBinAddr: 0x100014320, symSize: 0x60 }
  - { offsetInCU: 0x64C3, offset: 0x3B1B8, size: 0x8, addend: 0x0, symName: __ZNSt3__113__rewrap_iterB8ue170006INS_16reverse_iteratorIPP7ProcessEES5_NS_18__unwrap_iter_implIS5_Lb0EEEEET_S8_T0_, symObjAddr: 0x28F0, symBinAddr: 0x100014380, symSize: 0x70 }
  - { offsetInCU: 0x6518, offset: 0x3B20D, size: 0x8, addend: 0x0, symName: __ZNSt3__1neB8ue170006IPP7ProcessS3_EEbRKNS_16reverse_iteratorIT_EERKNS4_IT0_EE, symObjAddr: 0x2960, symBinAddr: 0x1000143F0, symSize: 0x40 }
  - { offsetInCU: 0x6616, offset: 0x3B30B, size: 0x8, addend: 0x0, symName: __ZNSt3__1eqB8ue170006INS_9allocatorIcEEEEbRKNS_12basic_stringIcNS_11char_traitsIcEET_EES9_, symObjAddr: 0x2DB0, symBinAddr: 0x100014840, symSize: 0x110 }
  - { offsetInCU: 0x6689, offset: 0x3B37E, size: 0x8, addend: 0x0, symName: __ZNSt3__122__make_exception_guardB8ue170006INS_6vectorIP7ProcessNS_9allocatorIS3_EEE16__destroy_vectorEEENS_28__exception_guard_exceptionsIT_EES9_, symObjAddr: 0x3CB0, symBinAddr: 0x100014C30, symSize: 0x40 }
  - { offsetInCU: 0x66BE, offset: 0x3B3B3, size: 0x8, addend: 0x0, symName: __ZNSt3__130__uninitialized_allocator_copyB8ue170006INS_9allocatorIP7ProcessEEPS3_S5_S5_EET2_RT_T0_T1_S6_, symObjAddr: 0x3EB0, symBinAddr: 0x100014E30, symSize: 0x80 }
  - { offsetInCU: 0x675B, offset: 0x3B450, size: 0x8, addend: 0x0, symName: __ZNSt3__114__unwrap_rangeB8ue170006IPP7ProcessS3_EENS_4pairIT0_S5_EET_S7_, symObjAddr: 0x3F30, symBinAddr: 0x100014EB0, symSize: 0x50 }
  - { offsetInCU: 0x67A7, offset: 0x3B49C, size: 0x8, addend: 0x0, symName: __ZNSt3__135__uninitialized_allocator_copy_implB8ue170006INS_9allocatorIP7ProcessEES3_S3_S3_LPv0EEEPT2_RT_PT0_SB_S7_, symObjAddr: 0x3F80, symBinAddr: 0x100014F00, symSize: 0x30 }
  - { offsetInCU: 0x6829, offset: 0x3B51E, size: 0x8, addend: 0x0, symName: __ZNSt3__113__unwrap_iterB8ue170006IPP7ProcessNS_18__unwrap_iter_implIS3_Lb1EEELi0EEEDTclsrT0_8__unwrapclsr3stdE7declvalIT_EEEES7_, symObjAddr: 0x3FB0, symBinAddr: 0x100014F30, symSize: 0x20 }
  - { offsetInCU: 0x686E, offset: 0x3B563, size: 0x8, addend: 0x0, symName: __ZNSt3__113__rewrap_iterB8ue170006IPP7ProcessS3_NS_18__unwrap_iter_implIS3_Lb1EEEEET_S6_T0_, symObjAddr: 0x3FD0, symBinAddr: 0x100014F50, symSize: 0x40 }
  - { offsetInCU: 0x68C3, offset: 0x3B5B8, size: 0x8, addend: 0x0, symName: __ZNSt3__19make_pairB8ue170006IPP7ProcessS3_EENS_4pairINS_18__unwrap_ref_decayIT_E4typeENS5_IT0_E4typeEEEOS6_OS9_, symObjAddr: 0x4010, symBinAddr: 0x100014F90, symSize: 0x30 }
  - { offsetInCU: 0x6A15, offset: 0x3B70A, size: 0x8, addend: 0x0, symName: __ZNSt3__14copyB8ue170006IPP7ProcessS3_EET0_T_S5_S4_, symObjAddr: 0x40A0, symBinAddr: 0x100015020, symSize: 0x40 }
  - { offsetInCU: 0x6A6F, offset: 0x3B764, size: 0x8, addend: 0x0, symName: __ZNSt3__16__copyB8ue170006INS_17_ClassicAlgPolicyEPP7ProcessS4_S4_EENS_4pairIT0_T2_EES6_T1_S7_, symObjAddr: 0x40E0, symBinAddr: 0x100015060, symSize: 0x40 }
  - { offsetInCU: 0x6ADB, offset: 0x3B7D0, size: 0x8, addend: 0x0, symName: __ZNSt3__123__dispatch_copy_or_moveB8ue170006INS_17_ClassicAlgPolicyENS_11__copy_loopIS1_EENS_14__copy_trivialEPP7ProcessS7_S7_EENS_4pairIT2_T4_EES9_T3_SA_, symObjAddr: 0x4120, symBinAddr: 0x1000150A0, symSize: 0x40 }
  - { offsetInCU: 0x6B59, offset: 0x3B84E, size: 0x8, addend: 0x0, symName: __ZNSt3__121__unwrap_and_dispatchB8ue170006INS_10__overloadINS_11__copy_loopINS_17_ClassicAlgPolicyEEENS_14__copy_trivialEEEPP7ProcessS9_S9_Li0EEENS_4pairIT0_T2_EESB_T1_SC_, symObjAddr: 0x4160, symBinAddr: 0x1000150E0, symSize: 0xB0 }
  - { offsetInCU: 0x6C30, offset: 0x3B925, size: 0x8, addend: 0x0, symName: __ZNSt3__114__rewrap_rangeB8ue170006IPP7ProcessS3_EET_S4_T0_, symObjAddr: 0x4250, symBinAddr: 0x1000151D0, symSize: 0x30 }
  - { offsetInCU: 0x6C7C, offset: 0x3B971, size: 0x8, addend: 0x0, symName: __ZNSt3__119__copy_trivial_implB8ue170006IP7ProcessS2_EENS_4pairIPT_PT0_EES5_S5_S7_, symObjAddr: 0x4280, symBinAddr: 0x100015200, symSize: 0x70 }
  - { offsetInCU: 0x6CE4, offset: 0x3B9D9, size: 0x8, addend: 0x0, symName: __ZNSt3__119__constexpr_memmoveB8ue170006IP7ProcessS2_Li0EEEPT_S4_PT0_NS_15__element_countE, symObjAddr: 0x42F0, symBinAddr: 0x100015270, symSize: 0x50 }
  - { offsetInCU: 0x6D53, offset: 0x3BA48, size: 0x8, addend: 0x0, symName: __ZNSt3__19make_pairB8ue170006IRPP7ProcessS3_EENS_4pairINS_18__unwrap_ref_decayIT_E4typeENS6_IT0_E4typeEEEOS7_OSA_, symObjAddr: 0x4340, symBinAddr: 0x1000152C0, symSize: 0x30 }
  - { offsetInCU: 0x6DF5, offset: 0x3BAEA, size: 0x8, addend: 0x0, symName: __ZNSt3__1miB8ue170006IPKP7ProcessS4_EEDTmicldtfp_4baseEcldtfp0_4baseEERKNS_11__wrap_iterIT_EERKNS6_IT0_EE, symObjAddr: 0x44C0, symBinAddr: 0x100015440, symSize: 0x40 }
  - { offsetInCU: 0x6E41, offset: 0x3BB36, size: 0x8, addend: 0x0, symName: __ZNSt3__14moveB8ue170006IPP7ProcessS3_EET0_T_S5_S4_, symObjAddr: 0x4580, symBinAddr: 0x100015500, symSize: 0x40 }
  - { offsetInCU: 0x6E9B, offset: 0x3BB90, size: 0x8, addend: 0x0, symName: __ZNSt3__16__moveB8ue170006INS_17_ClassicAlgPolicyEPP7ProcessS4_S4_EENS_4pairIT0_T2_EES6_T1_S7_, symObjAddr: 0x4660, symBinAddr: 0x1000155E0, symSize: 0x40 }
  - { offsetInCU: 0x6F07, offset: 0x3BBFC, size: 0x8, addend: 0x0, symName: __ZNSt3__123__dispatch_copy_or_moveB8ue170006INS_17_ClassicAlgPolicyENS_11__move_loopIS1_EENS_14__move_trivialEPP7ProcessS7_S7_EENS_4pairIT2_T4_EES9_T3_SA_, symObjAddr: 0x46A0, symBinAddr: 0x100015620, symSize: 0x40 }
  - { offsetInCU: 0x6F85, offset: 0x3BC7A, size: 0x8, addend: 0x0, symName: __ZNSt3__121__unwrap_and_dispatchB8ue170006INS_10__overloadINS_11__move_loopINS_17_ClassicAlgPolicyEEENS_14__move_trivialEEEPP7ProcessS9_S9_Li0EEENS_4pairIT0_T2_EESB_T1_SC_, symObjAddr: 0x46E0, symBinAddr: 0x100015660, symSize: 0xB0 }
  - { offsetInCU: 0x76AF, offset: 0x3C3A4, size: 0x8, addend: 0x0, symName: __ZNSt3__16vectorIP7ProcessNS_9allocatorIS2_EEE26__swap_out_circular_bufferERNS_14__split_bufferIS2_RS4_EE, symObjAddr: 0x1A00, symBinAddr: 0x1000137D0, symSize: 0x120 }
  - { offsetInCU: 0x951B, offset: 0x3E210, size: 0x8, addend: 0x0, symName: __ZN14ProcessManagerC2Exxx, symObjAddr: 0x0, symBinAddr: 0x100012090, symSize: 0x60 }
  - { offsetInCU: 0x9571, offset: 0x3E266, size: 0x8, addend: 0x0, symName: __ZNSt3__16vectorIP7ProcessNS_9allocatorIS2_EEEC1B8ue170006Ev, symObjAddr: 0x60, symBinAddr: 0x1000120F0, symSize: 0x20 }
  - { offsetInCU: 0x959B, offset: 0x3E290, size: 0x8, addend: 0x0, symName: __ZN14ProcessManagerC1Exxx, symObjAddr: 0x80, symBinAddr: 0x100012110, symSize: 0x40 }
  - { offsetInCU: 0x95F1, offset: 0x3E2E6, size: 0x8, addend: 0x0, symName: __ZN14ProcessManagerC2ERKS_, symObjAddr: 0xC0, symBinAddr: 0x100012150, symSize: 0x40 }
  - { offsetInCU: 0x9627, offset: 0x3E31C, size: 0x8, addend: 0x0, symName: __ZN14ProcessManagerC1ERKS_, symObjAddr: 0x100, symBinAddr: 0x100012190, symSize: 0x30 }
  - { offsetInCU: 0x965D, offset: 0x3E352, size: 0x8, addend: 0x0, symName: __ZN14ProcessManager10initializeExxx, symObjAddr: 0x130, symBinAddr: 0x1000121C0, symSize: 0x50 }
  - { offsetInCU: 0x969E, offset: 0x3E393, size: 0x8, addend: 0x0, symName: __ZN14ProcessManager11getInstanceEv, symObjAddr: 0x180, symBinAddr: 0x100012210, symSize: 0x10 }
  - { offsetInCU: 0x96B4, offset: 0x3E3A9, size: 0x8, addend: 0x0, symName: __ZN14ProcessManager13createProcessENSt3__112basic_stringIcNS0_11char_traitsIcEENS0_9allocatorIcEEEE, symObjAddr: 0x190, symBinAddr: 0x100012220, symSize: 0x160 }
  - { offsetInCU: 0x96F9, offset: 0x3E3EE, size: 0x8, addend: 0x0, symName: __ZNK14ProcessManager18getMaxInstructionsEv, symObjAddr: 0x2F0, symBinAddr: 0x100012380, symSize: 0x20 }
  - { offsetInCU: 0x9721, offset: 0x3E416, size: 0x8, addend: 0x0, symName: __ZNK14ProcessManager18getMinInstructionsEv, symObjAddr: 0x310, symBinAddr: 0x1000123A0, symSize: 0x20 }
  - { offsetInCU: 0x9748, offset: 0x3E43D, size: 0x8, addend: 0x0, symName: __ZNSt3__16vectorIP7ProcessNS_9allocatorIS2_EEE9push_backB8ue170006ERKS2_, symObjAddr: 0x330, symBinAddr: 0x1000123C0, symSize: 0x60 }
  - { offsetInCU: 0x9780, offset: 0x3E475, size: 0x8, addend: 0x0, symName: __ZNK14ProcessManager14displayProcessENSt3__112basic_stringIcNS0_11char_traitsIcEENS0_9allocatorIcEEEE, symObjAddr: 0x390, symBinAddr: 0x100012420, symSize: 0x180 }
  - { offsetInCU: 0x9828, offset: 0x3E51D, size: 0x8, addend: 0x0, symName: __ZNKSt3__16vectorIP7ProcessNS_9allocatorIS2_EEE5beginB8ue170006Ev, symObjAddr: 0x590, symBinAddr: 0x100012620, symSize: 0x30 }
  - { offsetInCU: 0x9850, offset: 0x3E545, size: 0x8, addend: 0x0, symName: __ZNKSt3__16vectorIP7ProcessNS_9allocatorIS2_EEE3endB8ue170006Ev, symObjAddr: 0x5C0, symBinAddr: 0x100012650, symSize: 0x30 }
  - { offsetInCU: 0x9879, offset: 0x3E56E, size: 0x8, addend: 0x0, symName: __ZNKSt3__111__wrap_iterIPKP7ProcessEdeB8ue170006Ev, symObjAddr: 0x6A0, symBinAddr: 0x100012730, symSize: 0x20 }
  - { offsetInCU: 0x989F, offset: 0x3E594, size: 0x8, addend: 0x0, symName: __ZN14ProcessManager20displayProcessesListENSt3__16vectorIP7ProcessNS0_9allocatorIS3_EEEE, symObjAddr: 0x7C0, symBinAddr: 0x1000127A0, symSize: 0x200 }
  - { offsetInCU: 0x9916, offset: 0x3E60B, size: 0x8, addend: 0x0, symName: __ZNSt3__16vectorIP7ProcessNS_9allocatorIS2_EEE5beginB8ue170006Ev, symObjAddr: 0x9C0, symBinAddr: 0x1000129A0, symSize: 0x30 }
  - { offsetInCU: 0x993E, offset: 0x3E633, size: 0x8, addend: 0x0, symName: __ZNSt3__16vectorIP7ProcessNS_9allocatorIS2_EEE3endB8ue170006Ev, symObjAddr: 0x9F0, symBinAddr: 0x1000129D0, symSize: 0x30 }
  - { offsetInCU: 0x9967, offset: 0x3E65C, size: 0x8, addend: 0x0, symName: __ZNKSt3__111__wrap_iterIPP7ProcessEdeB8ue170006Ev, symObjAddr: 0xA50, symBinAddr: 0x100012A30, symSize: 0x20 }
  - { offsetInCU: 0x998D, offset: 0x3E682, size: 0x8, addend: 0x0, symName: __ZNSt3__111__wrap_iterIPP7ProcessEppB8ue170006Ev, symObjAddr: 0xA70, symBinAddr: 0x100012A50, symSize: 0x20 }
  - { offsetInCU: 0x99B3, offset: 0x3E6A8, size: 0x8, addend: 0x0, symName: __ZN14ProcessManager19displayAllProcessesEv, symObjAddr: 0xA90, symBinAddr: 0x100012A70, symSize: 0x210 }
  - { offsetInCU: 0x99DB, offset: 0x3E6D0, size: 0x8, addend: 0x0, symName: __ZNSt3__16vectorIP7ProcessNS_9allocatorIS2_EEEC1ERKS5_, symObjAddr: 0xCA0, symBinAddr: 0x100012C80, symSize: 0x30 }
  - { offsetInCU: 0x9A16, offset: 0x3E70B, size: 0x8, addend: 0x0, symName: __ZNSt3__16vectorIP7ProcessNS_9allocatorIS2_EEED1B8ue170006Ev, symObjAddr: 0xCD0, symBinAddr: 0x100012CB0, symSize: 0x20 }
  - { offsetInCU: 0x9A40, offset: 0x3E735, size: 0x8, addend: 0x0, symName: __ZN14ProcessManager14moveToFinishedERKNSt3__112basic_stringIcNS0_11char_traitsIcEENS0_9allocatorIcEEEE, symObjAddr: 0xCF0, symBinAddr: 0x100012CD0, symSize: 0xE0 }
  - { offsetInCU: 0x9AAE, offset: 0x3E7A3, size: 0x8, addend: 0x0, symName: __ZNSt3__16vectorIP7ProcessNS_9allocatorIS2_EEE5eraseB8ue170006ENS_11__wrap_iterIPKS2_EE, symObjAddr: 0xE50, symBinAddr: 0x100012E30, symSize: 0x90 }
  - { offsetInCU: 0x9B0E, offset: 0x3E803, size: 0x8, addend: 0x0, symName: __ZNSt3__111__wrap_iterIPKP7ProcessEC1B8ue170006IPS2_EERKNS0_IT_EEPNS_9enable_ifIXsr14is_convertibleIS8_S4_EE5valueEvE4typeE, symObjAddr: 0xEE0, symBinAddr: 0x100012EC0, symSize: 0x30 }
  - { offsetInCU: 0x9B59, offset: 0x3E84E, size: 0x8, addend: 0x0, symName: __ZNK14ProcessManager19getBatchProcessFreqEv, symObjAddr: 0xF10, symBinAddr: 0x100012EF0, symSize: 0x20 }
  - { offsetInCU: 0x9B81, offset: 0x3E876, size: 0x8, addend: 0x0, symName: __ZNK14ProcessManager24getIsGeneratingProcessesEv, symObjAddr: 0xF30, symBinAddr: 0x100012F10, symSize: 0x20 }
  - { offsetInCU: 0x9BA9, offset: 0x3E89E, size: 0x8, addend: 0x0, symName: __ZN14ProcessManager24setIsGeneratingProcessesEb, symObjAddr: 0xF50, symBinAddr: 0x100012F30, symSize: 0x20 }
  - { offsetInCU: 0x9BDF, offset: 0x3E8D4, size: 0x8, addend: 0x0, symName: __ZNKSt3__111__wrap_iterIPKP7ProcessE4baseB8ue170006Ev, symObjAddr: 0xFB0, symBinAddr: 0x100012F90, symSize: 0x20 }
  - { offsetInCU: 0x9C05, offset: 0x3E8FA, size: 0x8, addend: 0x0, symName: __ZNKSt3__111__wrap_iterIPP7ProcessE4baseB8ue170006Ev, symObjAddr: 0x1010, symBinAddr: 0x100012FF0, symSize: 0x20 }
  - { offsetInCU: 0x9C2B, offset: 0x3E920, size: 0x8, addend: 0x0, symName: __ZNSt3__111__wrap_iterIPKP7ProcessEC2B8ue170006IPS2_EERKNS0_IT_EEPNS_9enable_ifIXsr14is_convertibleIS8_S4_EE5valueEvE4typeE, symObjAddr: 0x1030, symBinAddr: 0x100013010, symSize: 0x40 }
  - { offsetInCU: 0x9C76, offset: 0x3E96B, size: 0x8, addend: 0x0, symName: __ZNSt3__16vectorIP7ProcessNS_9allocatorIS2_EEEC2B8ue170006Ev, symObjAddr: 0x1070, symBinAddr: 0x100013050, symSize: 0x50 }
  - { offsetInCU: 0x9CAA, offset: 0x3E99F, size: 0x8, addend: 0x0, symName: __ZNSt3__117__compressed_pairIPP7ProcessNS_9allocatorIS2_EEEC1B8ue170006IDnNS_18__default_init_tagEEEOT_OT0_, symObjAddr: 0x10C0, symBinAddr: 0x1000130A0, symSize: 0x30 }
  - { offsetInCU: 0x9D02, offset: 0x3E9F7, size: 0x8, addend: 0x0, symName: __ZNSt3__117__compressed_pairIPP7ProcessNS_9allocatorIS2_EEEC2B8ue170006IDnNS_18__default_init_tagEEEOT_OT0_, symObjAddr: 0x1100, symBinAddr: 0x1000130D0, symSize: 0x40 }
  - { offsetInCU: 0x9D5A, offset: 0x3EA4F, size: 0x8, addend: 0x0, symName: __ZNSt3__122__compressed_pair_elemIPP7ProcessLi0ELb0EEC2B8ue170006IDnvEEOT_, symObjAddr: 0x1140, symBinAddr: 0x100013110, symSize: 0x20 }
  - { offsetInCU: 0x9D9C, offset: 0x3EA91, size: 0x8, addend: 0x0, symName: __ZNSt3__16vectorIP7ProcessNS_9allocatorIS2_EEED2B8ue170006Ev, symObjAddr: 0x11B0, symBinAddr: 0x100013130, symSize: 0x40 }
  - { offsetInCU: 0x9DC6, offset: 0x3EABB, size: 0x8, addend: 0x0, symName: __ZNSt3__16vectorIP7ProcessNS_9allocatorIS2_EEE16__destroy_vectorC1B8ue170006ERS5_, symObjAddr: 0x11F0, symBinAddr: 0x100013170, symSize: 0x30 }
  - { offsetInCU: 0x9DFF, offset: 0x3EAF4, size: 0x8, addend: 0x0, symName: __ZNSt3__16vectorIP7ProcessNS_9allocatorIS2_EEE16__destroy_vectorclB8ue170006Ev, symObjAddr: 0x1220, symBinAddr: 0x1000131A0, symSize: 0x80 }
  - { offsetInCU: 0x9E25, offset: 0x3EB1A, size: 0x8, addend: 0x0, symName: __ZNSt3__16vectorIP7ProcessNS_9allocatorIS2_EEE16__destroy_vectorC2B8ue170006ERS5_, symObjAddr: 0x12A0, symBinAddr: 0x100013220, symSize: 0x20 }
  - { offsetInCU: 0x9E5E, offset: 0x3EB53, size: 0x8, addend: 0x0, symName: __ZNSt3__16vectorIP7ProcessNS_9allocatorIS2_EEE7__clearB8ue170006Ev, symObjAddr: 0x12C0, symBinAddr: 0x100013240, symSize: 0x20 }
  - { offsetInCU: 0x9E84, offset: 0x3EB79, size: 0x8, addend: 0x0, symName: __ZNKSt3__16vectorIP7ProcessNS_9allocatorIS2_EEE17__annotate_deleteB8ue170006Ev, symObjAddr: 0x12E0, symBinAddr: 0x100013260, symSize: 0xB0 }
  - { offsetInCU: 0x9EAA, offset: 0x3EB9F, size: 0x8, addend: 0x0, symName: __ZNSt3__16vectorIP7ProcessNS_9allocatorIS2_EEE7__allocB8ue170006Ev, symObjAddr: 0x13C0, symBinAddr: 0x100013310, symSize: 0x20 }
  - { offsetInCU: 0x9ED0, offset: 0x3EBC5, size: 0x8, addend: 0x0, symName: __ZNKSt3__16vectorIP7ProcessNS_9allocatorIS2_EEE8capacityB8ue170006Ev, symObjAddr: 0x13E0, symBinAddr: 0x100013330, symSize: 0x30 }
  - { offsetInCU: 0x9EF6, offset: 0x3EBEB, size: 0x8, addend: 0x0, symName: __ZNSt3__16vectorIP7ProcessNS_9allocatorIS2_EEE22__base_destruct_at_endB8ue170006EPS2_, symObjAddr: 0x1410, symBinAddr: 0x100013360, symSize: 0x80 }
  - { offsetInCU: 0x9F3A, offset: 0x3EC2F, size: 0x8, addend: 0x0, symName: __ZNKSt3__16vectorIP7ProcessNS_9allocatorIS2_EEE31__annotate_contiguous_containerB8ue170006EPKvS7_S7_S7_, symObjAddr: 0x14E0, symBinAddr: 0x1000133E0, symSize: 0x20 }
  - { offsetInCU: 0x9F90, offset: 0x3EC85, size: 0x8, addend: 0x0, symName: __ZNKSt3__16vectorIP7ProcessNS_9allocatorIS2_EEE4dataB8ue170006Ev, symObjAddr: 0x1500, symBinAddr: 0x100013400, symSize: 0x20 }
  - { offsetInCU: 0x9FB6, offset: 0x3ECAB, size: 0x8, addend: 0x0, symName: __ZNKSt3__16vectorIP7ProcessNS_9allocatorIS2_EEE4sizeB8ue170006Ev, symObjAddr: 0x1520, symBinAddr: 0x100013420, symSize: 0x20 }
  - { offsetInCU: 0x9FDC, offset: 0x3ECD1, size: 0x8, addend: 0x0, symName: __ZNSt3__117__compressed_pairIPP7ProcessNS_9allocatorIS2_EEE6secondB8ue170006Ev, symObjAddr: 0x15F0, symBinAddr: 0x100013440, symSize: 0x20 }
  - { offsetInCU: 0xA002, offset: 0x3ECF7, size: 0x8, addend: 0x0, symName: __ZNKSt3__16vectorIP7ProcessNS_9allocatorIS2_EEE9__end_capB8ue170006Ev, symObjAddr: 0x1620, symBinAddr: 0x100013460, symSize: 0x20 }
  - { offsetInCU: 0xA028, offset: 0x3ED1D, size: 0x8, addend: 0x0, symName: __ZNKSt3__117__compressed_pairIPP7ProcessNS_9allocatorIS2_EEE5firstB8ue170006Ev, symObjAddr: 0x1640, symBinAddr: 0x100013480, symSize: 0x20 }
  - { offsetInCU: 0xA04E, offset: 0x3ED43, size: 0x8, addend: 0x0, symName: __ZNSt3__16vectorIP7ProcessNS_9allocatorIS2_EEE9__end_capB8ue170006Ev, symObjAddr: 0x1670, symBinAddr: 0x1000134A0, symSize: 0x20 }
  - { offsetInCU: 0xA074, offset: 0x3ED69, size: 0x8, addend: 0x0, symName: __ZNSt3__16vectorIP7ProcessNS_9allocatorIS2_EEE22__construct_one_at_endB8ue170006IJRKS2_EEEvDpOT_, symObjAddr: 0x1690, symBinAddr: 0x1000134C0, symSize: 0x90 }
  - { offsetInCU: 0xA0C2, offset: 0x3EDB7, size: 0x8, addend: 0x0, symName: __ZNSt3__16vectorIP7ProcessNS_9allocatorIS2_EEE21__push_back_slow_pathIRKS2_EEvOT_, symObjAddr: 0x1720, symBinAddr: 0x100013550, symSize: 0xD0 }
  - { offsetInCU: 0xA121, offset: 0x3EE16, size: 0x8, addend: 0x0, symName: __ZNSt3__117__compressed_pairIPP7ProcessNS_9allocatorIS2_EEE5firstB8ue170006Ev, symObjAddr: 0x17F0, symBinAddr: 0x100013620, symSize: 0x20 }
  - { offsetInCU: 0xA160, offset: 0x3EE55, size: 0x8, addend: 0x0, symName: __ZNSt3__16vectorIP7ProcessNS_9allocatorIS2_EEE21_ConstructTransactionC1B8ue170006ERS5_m, symObjAddr: 0x1820, symBinAddr: 0x100013640, symSize: 0x30 }
  - { offsetInCU: 0xA1A8, offset: 0x3EE9D, size: 0x8, addend: 0x0, symName: __ZNSt3__16vectorIP7ProcessNS_9allocatorIS2_EEE21_ConstructTransactionD1B8ue170006Ev, symObjAddr: 0x1880, symBinAddr: 0x100013670, symSize: 0x20 }
  - { offsetInCU: 0xA1D2, offset: 0x3EEC7, size: 0x8, addend: 0x0, symName: __ZNSt3__16vectorIP7ProcessNS_9allocatorIS2_EEE21_ConstructTransactionC2B8ue170006ERS5_m, symObjAddr: 0x18A0, symBinAddr: 0x100013690, symSize: 0x40 }
  - { offsetInCU: 0xA21A, offset: 0x3EF0F, size: 0x8, addend: 0x0, symName: __ZNSt3__16vectorIP7ProcessNS_9allocatorIS2_EEE21_ConstructTransactionD2B8ue170006Ev, symObjAddr: 0x1900, symBinAddr: 0x1000136D0, symSize: 0x20 }
  - { offsetInCU: 0xA243, offset: 0x3EF38, size: 0x8, addend: 0x0, symName: __ZNKSt3__16vectorIP7ProcessNS_9allocatorIS2_EEE11__recommendB8ue170006Em, symObjAddr: 0x1920, symBinAddr: 0x1000136F0, symSize: 0xA0 }
  - { offsetInCU: 0xA299, offset: 0x3EF8E, size: 0x8, addend: 0x0, symName: __ZNSt3__114__split_bufferIP7ProcessRNS_9allocatorIS2_EEEC1EmmS5_, symObjAddr: 0x19C0, symBinAddr: 0x100013790, symSize: 0x40 }
  - { offsetInCU: 0xA2EF, offset: 0x3EFE4, size: 0x8, addend: 0x0, symName: __ZNSt3__114__split_bufferIP7ProcessRNS_9allocatorIS2_EEED1Ev, symObjAddr: 0x1B20, symBinAddr: 0x1000138F0, symSize: 0x20 }
  - { offsetInCU: 0xA31A, offset: 0x3F00F, size: 0x8, addend: 0x0, symName: __ZNKSt3__16vectorIP7ProcessNS_9allocatorIS2_EEE8max_sizeEv, symObjAddr: 0x1B40, symBinAddr: 0x100013910, symSize: 0x60 }
  - { offsetInCU: 0xA343, offset: 0x3F038, size: 0x8, addend: 0x0, symName: __ZNKSt3__16vectorIP7ProcessNS_9allocatorIS2_EEE20__throw_length_errorB8ue170006Ev, symObjAddr: 0x1BA0, symBinAddr: 0x100013970, symSize: 0x20 }
  - { offsetInCU: 0xA373, offset: 0x3F068, size: 0x8, addend: 0x0, symName: __ZNKSt3__16vectorIP7ProcessNS_9allocatorIS2_EEE7__allocB8ue170006Ev, symObjAddr: 0x1C40, symBinAddr: 0x100013990, symSize: 0x20 }
  - { offsetInCU: 0xA399, offset: 0x3F08E, size: 0x8, addend: 0x0, symName: __ZNKSt3__117__compressed_pairIPP7ProcessNS_9allocatorIS2_EEE6secondB8ue170006Ev, symObjAddr: 0x1D10, symBinAddr: 0x1000139B0, symSize: 0x20 }
  - { offsetInCU: 0xA3BF, offset: 0x3F0B4, size: 0x8, addend: 0x0, symName: __ZNKSt3__122__compressed_pair_elemINS_9allocatorIP7ProcessEELi1ELb1EE5__getB8ue170006Ev, symObjAddr: 0x1D30, symBinAddr: 0x1000139D0, symSize: 0x10 }
  - { offsetInCU: 0xA3E5, offset: 0x3F0DA, size: 0x8, addend: 0x0, symName: __ZNSt3__114__split_bufferIP7ProcessRNS_9allocatorIS2_EEEC2EmmS5_, symObjAddr: 0x1E80, symBinAddr: 0x1000139E0, symSize: 0xD0 }
  - { offsetInCU: 0xA458, offset: 0x3F14D, size: 0x8, addend: 0x0, symName: __ZNSt3__117__compressed_pairIPP7ProcessRNS_9allocatorIS2_EEEC1B8ue170006IDnS6_EEOT_OT0_, symObjAddr: 0x1F50, symBinAddr: 0x100013AB0, symSize: 0x30 }
  - { offsetInCU: 0xA4B0, offset: 0x3F1A5, size: 0x8, addend: 0x0, symName: __ZNSt3__114__split_bufferIP7ProcessRNS_9allocatorIS2_EEE7__allocB8ue170006Ev, symObjAddr: 0x1FC0, symBinAddr: 0x100013B20, symSize: 0x20 }
  - { offsetInCU: 0xA4D6, offset: 0x3F1CB, size: 0x8, addend: 0x0, symName: __ZNSt3__114__split_bufferIP7ProcessRNS_9allocatorIS2_EEE9__end_capB8ue170006Ev, symObjAddr: 0x1FE0, symBinAddr: 0x100013B40, symSize: 0x20 }
  - { offsetInCU: 0xA4FC, offset: 0x3F1F1, size: 0x8, addend: 0x0, symName: __ZNSt3__117__compressed_pairIPP7ProcessRNS_9allocatorIS2_EEEC2B8ue170006IDnS6_EEOT_OT0_, symObjAddr: 0x2000, symBinAddr: 0x100013B60, symSize: 0x40 }
  - { offsetInCU: 0xA554, offset: 0x3F249, size: 0x8, addend: 0x0, symName: __ZNSt3__122__compressed_pair_elemIRNS_9allocatorIP7ProcessEELi1ELb0EEC2B8ue170006IS5_vEEOT_, symObjAddr: 0x2040, symBinAddr: 0x100013BA0, symSize: 0x20 }
  - { offsetInCU: 0xA596, offset: 0x3F28B, size: 0x8, addend: 0x0, symName: __ZNSt3__117__compressed_pairIPP7ProcessRNS_9allocatorIS2_EEE6secondB8ue170006Ev, symObjAddr: 0x2130, symBinAddr: 0x100013BC0, symSize: 0x20 }
  - { offsetInCU: 0xA5BC, offset: 0x3F2B1, size: 0x8, addend: 0x0, symName: __ZNSt3__122__compressed_pair_elemIRNS_9allocatorIP7ProcessEELi1ELb0EE5__getB8ue170006Ev, symObjAddr: 0x2150, symBinAddr: 0x100013BE0, symSize: 0x20 }
  - { offsetInCU: 0xA5E2, offset: 0x3F2D7, size: 0x8, addend: 0x0, symName: __ZNSt3__117__compressed_pairIPP7ProcessRNS_9allocatorIS2_EEE5firstB8ue170006Ev, symObjAddr: 0x2170, symBinAddr: 0x100013C00, symSize: 0x20 }
  - { offsetInCU: 0xA608, offset: 0x3F2FD, size: 0x8, addend: 0x0, symName: __ZNSt3__116reverse_iteratorIPP7ProcessEC1B8ue170006ES3_, symObjAddr: 0x2200, symBinAddr: 0x100013C90, symSize: 0x30 }
  - { offsetInCU: 0xA640, offset: 0x3F335, size: 0x8, addend: 0x0, symName: __ZNKSt3__116reverse_iteratorIPP7ProcessE4baseB8ue170006Ev, symObjAddr: 0x2230, symBinAddr: 0x100013CC0, symSize: 0x20 }
  - { offsetInCU: 0xA666, offset: 0x3F35B, size: 0x8, addend: 0x0, symName: __ZNKSt3__16vectorIP7ProcessNS_9allocatorIS2_EEE14__annotate_newB8ue170006Em, symObjAddr: 0x2290, symBinAddr: 0x100013D20, symSize: 0xB0 }
  - { offsetInCU: 0xA6BE, offset: 0x3F3B3, size: 0x8, addend: 0x0, symName: __ZNKSt3__111__move_loopINS_17_ClassicAlgPolicyEEclB8ue170006INS_16reverse_iteratorIPP7ProcessEES8_S8_EENS_4pairIT_T1_EESA_T0_SB_, symObjAddr: 0x2780, symBinAddr: 0x100014210, symSize: 0xA0 }
  - { offsetInCU: 0xA72E, offset: 0x3F423, size: 0x8, addend: 0x0, symName: __ZNSt3__18_IterOpsINS_17_ClassicAlgPolicyEE11__iter_moveB8ue170006IRNS_16reverse_iteratorIPP7ProcessEEEENS_9enable_ifIXsr12is_referenceIDTdeclsr3stdE7declvalIRT_EEEEE5valueEDTclsr3stdE4movedeclsr3stdE7declvalISC_EEEEE4typeEOSB_, symObjAddr: 0x29A0, symBinAddr: 0x100014430, symSize: 0x20 }
  - { offsetInCU: 0xA75A, offset: 0x3F44F, size: 0x8, addend: 0x0, symName: __ZNKSt3__116reverse_iteratorIPP7ProcessEdeB8ue170006Ev, symObjAddr: 0x29C0, symBinAddr: 0x100014450, symSize: 0x30 }
  - { offsetInCU: 0xA78E, offset: 0x3F483, size: 0x8, addend: 0x0, symName: __ZNSt3__116reverse_iteratorIPP7ProcessEppB8ue170006Ev, symObjAddr: 0x29F0, symBinAddr: 0x100014480, symSize: 0x20 }
  - { offsetInCU: 0xA7B4, offset: 0x3F4A9, size: 0x8, addend: 0x0, symName: __ZNSt3__18_IterOpsINS_17_ClassicAlgPolicyEE25__validate_iter_referenceB8ue170006IRNS_16reverse_iteratorIPP7ProcessEEEEvv, symObjAddr: 0x2A10, symBinAddr: 0x1000144A0, symSize: 0x10 }
  - { offsetInCU: 0xA7D2, offset: 0x3F4C7, size: 0x8, addend: 0x0, symName: __ZNSt3__118__unwrap_iter_implINS_16reverse_iteratorIPP7ProcessEELb0EE8__unwrapB8ue170006ES5_, symObjAddr: 0x2A20, symBinAddr: 0x1000144B0, symSize: 0x20 }
  - { offsetInCU: 0xA7FA, offset: 0x3F4EF, size: 0x8, addend: 0x0, symName: __ZNSt3__14pairINS_16reverse_iteratorIPP7ProcessEES5_EC1B8ue170006IS5_S5_LPv0EEEOT_OT0_, symObjAddr: 0x2A40, symBinAddr: 0x1000144D0, symSize: 0x30 }
  - { offsetInCU: 0xA858, offset: 0x3F54D, size: 0x8, addend: 0x0, symName: __ZNSt3__14pairINS_16reverse_iteratorIPP7ProcessEES5_EC2B8ue170006IS5_S5_LPv0EEEOT_OT0_, symObjAddr: 0x2A70, symBinAddr: 0x100014500, symSize: 0x40 }
  - { offsetInCU: 0xA8B6, offset: 0x3F5AB, size: 0x8, addend: 0x0, symName: __ZNSt3__118__unwrap_iter_implINS_16reverse_iteratorIPP7ProcessEELb0EE8__rewrapB8ue170006ES5_S5_, symObjAddr: 0x2AB0, symBinAddr: 0x100014540, symSize: 0x30 }
  - { offsetInCU: 0xA8E3, offset: 0x3F5D8, size: 0x8, addend: 0x0, symName: __ZNSt3__116reverse_iteratorIPP7ProcessEC2B8ue170006ES3_, symObjAddr: 0x2AE0, symBinAddr: 0x100014570, symSize: 0x30 }
  - { offsetInCU: 0xA91B, offset: 0x3F610, size: 0x8, addend: 0x0, symName: __ZNSt3__114__split_bufferIP7ProcessRNS_9allocatorIS2_EEED2Ev, symObjAddr: 0x2B10, symBinAddr: 0x1000145A0, symSize: 0x70 }
  - { offsetInCU: 0xA947, offset: 0x3F63C, size: 0x8, addend: 0x0, symName: __ZNSt3__114__split_bufferIP7ProcessRNS_9allocatorIS2_EEE5clearB8ue170006Ev, symObjAddr: 0x2B80, symBinAddr: 0x100014610, symSize: 0x20 }
  - { offsetInCU: 0xA96D, offset: 0x3F662, size: 0x8, addend: 0x0, symName: __ZNKSt3__114__split_bufferIP7ProcessRNS_9allocatorIS2_EEE8capacityB8ue170006Ev, symObjAddr: 0x2BA0, symBinAddr: 0x100014630, symSize: 0x30 }
  - { offsetInCU: 0xA993, offset: 0x3F688, size: 0x8, addend: 0x0, symName: __ZNSt3__114__split_bufferIP7ProcessRNS_9allocatorIS2_EEE17__destruct_at_endB8ue170006EPS2_, symObjAddr: 0x2BD0, symBinAddr: 0x100014660, symSize: 0x30 }
  - { offsetInCU: 0xA9C6, offset: 0x3F6BB, size: 0x8, addend: 0x0, symName: __ZNSt3__114__split_bufferIP7ProcessRNS_9allocatorIS2_EEE17__destruct_at_endB8ue170006EPS2_NS_17integral_constantIbLb0EEE, symObjAddr: 0x2C00, symBinAddr: 0x100014690, symSize: 0x80 }
  - { offsetInCU: 0xAA07, offset: 0x3F6FC, size: 0x8, addend: 0x0, symName: __ZNKSt3__114__split_bufferIP7ProcessRNS_9allocatorIS2_EEE9__end_capB8ue170006Ev, symObjAddr: 0x2C80, symBinAddr: 0x100014710, symSize: 0x20 }
  - { offsetInCU: 0xAA2D, offset: 0x3F722, size: 0x8, addend: 0x0, symName: __ZNKSt3__117__compressed_pairIPP7ProcessRNS_9allocatorIS2_EEE5firstB8ue170006Ev, symObjAddr: 0x2CA0, symBinAddr: 0x100014730, symSize: 0x20 }
  - { offsetInCU: 0xAA53, offset: 0x3F748, size: 0x8, addend: 0x0, symName: __ZNKSt3__16vectorIP7ProcessNS_9allocatorIS2_EEE11__make_iterB8ue170006EPKS2_, symObjAddr: 0x2CC0, symBinAddr: 0x100014750, symSize: 0x30 }
  - { offsetInCU: 0xAA88, offset: 0x3F77D, size: 0x8, addend: 0x0, symName: __ZNSt3__111__wrap_iterIPKP7ProcessEC1B8ue170006ES4_, symObjAddr: 0x2CF0, symBinAddr: 0x100014780, symSize: 0x30 }
  - { offsetInCU: 0xAAC0, offset: 0x3F7B5, size: 0x8, addend: 0x0, symName: __ZNSt3__111__wrap_iterIPKP7ProcessEC2B8ue170006ES4_, symObjAddr: 0x2D20, symBinAddr: 0x1000147B0, symSize: 0x20 }
  - { offsetInCU: 0xAB07, offset: 0x3F7FC, size: 0x8, addend: 0x0, symName: '__ZZNK14ProcessManager14displayProcessENSt3__112basic_stringIcNS0_11char_traitsIcEENS0_9allocatorIcEEEEENK3$_0clEP7Process', symObjAddr: 0x2D40, symBinAddr: 0x1000147D0, symSize: 0x50 }
  - { offsetInCU: 0xAB3F, offset: 0x3F834, size: 0x8, addend: 0x0, symName: __ZNSt3__111__wrap_iterIPKP7ProcessEppB8ue170006Ev, symObjAddr: 0x2D90, symBinAddr: 0x100014820, symSize: 0x20 }
  - { offsetInCU: 0xAB65, offset: 0x3F85A, size: 0x8, addend: 0x0, symName: __ZNSt3__111char_traitsIcE7compareB8ue170006EPKcS3_m, symObjAddr: 0x2F70, symBinAddr: 0x100014950, symSize: 0x30 }
  - { offsetInCU: 0xABAE, offset: 0x3F8A3, size: 0x8, addend: 0x0, symName: '__ZZNK14ProcessManager14displayProcessENSt3__112basic_stringIcNS0_11char_traitsIcEENS0_9allocatorIcEEEEENK3$_1clEP7Process', symObjAddr: 0x30E0, symBinAddr: 0x100014980, symSize: 0x50 }
  - { offsetInCU: 0xAC04, offset: 0x3F8F9, size: 0x8, addend: 0x0, symName: __ZNSt3__16vectorIP7ProcessNS_9allocatorIS2_EEE11__make_iterB8ue170006EPS2_, symObjAddr: 0x3A50, symBinAddr: 0x1000149D0, symSize: 0x30 }
  - { offsetInCU: 0xAC39, offset: 0x3F92E, size: 0x8, addend: 0x0, symName: __ZNSt3__111__wrap_iterIPP7ProcessEC1B8ue170006ES3_, symObjAddr: 0x3A80, symBinAddr: 0x100014A00, symSize: 0x30 }
  - { offsetInCU: 0xAC71, offset: 0x3F966, size: 0x8, addend: 0x0, symName: __ZNSt3__111__wrap_iterIPP7ProcessEC2B8ue170006ES3_, symObjAddr: 0x3AB0, symBinAddr: 0x100014A30, symSize: 0x20 }
  - { offsetInCU: 0xACA9, offset: 0x3F99E, size: 0x8, addend: 0x0, symName: __ZNSt3__16vectorIP7ProcessNS_9allocatorIS2_EEEC2ERKS5_, symObjAddr: 0x3AD0, symBinAddr: 0x100014A50, symSize: 0xA0 }
  - { offsetInCU: 0xACE4, offset: 0x3F9D9, size: 0x8, addend: 0x0, symName: __ZNSt3__116allocator_traitsINS_9allocatorIP7ProcessEEE37select_on_container_copy_constructionB8ue170006IS4_vvEES4_RKS4_, symObjAddr: 0x3B70, symBinAddr: 0x100014AF0, symSize: 0x10 }
  - { offsetInCU: 0xAD18, offset: 0x3FA0D, size: 0x8, addend: 0x0, symName: __ZNSt3__117__compressed_pairIPP7ProcessNS_9allocatorIS2_EEEC1B8ue170006IDnS5_EEOT_OT0_, symObjAddr: 0x3B80, symBinAddr: 0x100014B00, symSize: 0x30 }
  - { offsetInCU: 0xAD70, offset: 0x3FA65, size: 0x8, addend: 0x0, symName: __ZNSt3__16vectorIP7ProcessNS_9allocatorIS2_EEE16__init_with_sizeB8ue170006IPS2_S7_EEvT_T0_m, symObjAddr: 0x3BB0, symBinAddr: 0x100014B30, symSize: 0xB0 }
  - { offsetInCU: 0xADE4, offset: 0x3FAD9, size: 0x8, addend: 0x0, symName: __ZNSt3__117__compressed_pairIPP7ProcessNS_9allocatorIS2_EEEC2B8ue170006IDnS5_EEOT_OT0_, symObjAddr: 0x3C60, symBinAddr: 0x100014BE0, symSize: 0x40 }
  - { offsetInCU: 0xAE3C, offset: 0x3FB31, size: 0x8, addend: 0x0, symName: __ZNSt3__122__compressed_pair_elemINS_9allocatorIP7ProcessEELi1ELb1EEC2B8ue170006IS4_vEEOT_, symObjAddr: 0x3CA0, symBinAddr: 0x100014C20, symSize: 0x10 }
  - { offsetInCU: 0xAE7E, offset: 0x3FB73, size: 0x8, addend: 0x0, symName: __ZNSt3__16vectorIP7ProcessNS_9allocatorIS2_EEE11__vallocateB8ue170006Em, symObjAddr: 0x3CF0, symBinAddr: 0x100014C70, symSize: 0xA0 }
  - { offsetInCU: 0xAEC1, offset: 0x3FBB6, size: 0x8, addend: 0x0, symName: __ZNSt3__16vectorIP7ProcessNS_9allocatorIS2_EEE18__construct_at_endIPS2_S7_EEvT_T0_m, symObjAddr: 0x3D90, symBinAddr: 0x100014D10, symSize: 0x90 }
  - { offsetInCU: 0xAF38, offset: 0x3FC2D, size: 0x8, addend: 0x0, symName: __ZNSt3__128__exception_guard_exceptionsINS_6vectorIP7ProcessNS_9allocatorIS3_EEE16__destroy_vectorEE10__completeB8ue170006Ev, symObjAddr: 0x3E20, symBinAddr: 0x100014DA0, symSize: 0x20 }
  - { offsetInCU: 0xAF5E, offset: 0x3FC53, size: 0x8, addend: 0x0, symName: __ZNSt3__128__exception_guard_exceptionsINS_6vectorIP7ProcessNS_9allocatorIS3_EEE16__destroy_vectorEED1B8ue170006Ev, symObjAddr: 0x3E40, symBinAddr: 0x100014DC0, symSize: 0x20 }
  - { offsetInCU: 0xAF88, offset: 0x3FC7D, size: 0x8, addend: 0x0, symName: __ZNSt3__128__exception_guard_exceptionsINS_6vectorIP7ProcessNS_9allocatorIS3_EEE16__destroy_vectorEEC1B8ue170006ES7_, symObjAddr: 0x3E60, symBinAddr: 0x100014DE0, symSize: 0x30 }
  - { offsetInCU: 0xAFC0, offset: 0x3FCB5, size: 0x8, addend: 0x0, symName: __ZNSt3__128__exception_guard_exceptionsINS_6vectorIP7ProcessNS_9allocatorIS3_EEE16__destroy_vectorEEC2B8ue170006ES7_, symObjAddr: 0x3E90, symBinAddr: 0x100014E10, symSize: 0x20 }
  - { offsetInCU: 0xB016, offset: 0x3FD0B, size: 0x8, addend: 0x0, symName: __ZNSt3__14pairIPP7ProcessS3_EC1B8ue170006IS3_S3_LPv0EEEOT_OT0_, symObjAddr: 0x4040, symBinAddr: 0x100014FC0, symSize: 0x30 }
  - { offsetInCU: 0xB074, offset: 0x3FD69, size: 0x8, addend: 0x0, symName: __ZNSt3__14pairIPP7ProcessS3_EC2B8ue170006IS3_S3_LPv0EEEOT_OT0_, symObjAddr: 0x4070, symBinAddr: 0x100014FF0, symSize: 0x30 }
  - { offsetInCU: 0xB0DC, offset: 0x3FDD1, size: 0x8, addend: 0x0, symName: __ZNKSt3__114__copy_trivialclB8ue170006IP7ProcessS3_Li0EEENS_4pairIPT_PT0_EES6_S6_S8_, symObjAddr: 0x4210, symBinAddr: 0x100015190, symSize: 0x40 }
  - { offsetInCU: 0xB145, offset: 0x3FE3A, size: 0x8, addend: 0x0, symName: __ZNSt3__14pairIPP7ProcessS3_EC1B8ue170006IRS3_S3_LPv0EEEOT_OT0_, symObjAddr: 0x4370, symBinAddr: 0x1000152F0, symSize: 0x30 }
  - { offsetInCU: 0xB1A3, offset: 0x3FE98, size: 0x8, addend: 0x0, symName: __ZNSt3__14pairIPP7ProcessS3_EC2B8ue170006IRS3_S3_LPv0EEEOT_OT0_, symObjAddr: 0x43A0, symBinAddr: 0x100015320, symSize: 0x30 }
  - { offsetInCU: 0xB201, offset: 0x3FEF6, size: 0x8, addend: 0x0, symName: __ZNSt3__118__unwrap_iter_implIPP7ProcessLb1EE8__unwrapB8ue170006ES3_, symObjAddr: 0x43D0, symBinAddr: 0x100015350, symSize: 0x20 }
  - { offsetInCU: 0xB224, offset: 0x3FF19, size: 0x8, addend: 0x0, symName: __ZNSt3__118__unwrap_iter_implIPP7ProcessLb1EE8__rewrapB8ue170006ES3_S3_, symObjAddr: 0x43F0, symBinAddr: 0x100015370, symSize: 0x50 }
  - { offsetInCU: 0xB255, offset: 0x3FF4A, size: 0x8, addend: 0x0, symName: __ZNSt3__128__exception_guard_exceptionsINS_6vectorIP7ProcessNS_9allocatorIS3_EEE16__destroy_vectorEED2B8ue170006Ev, symObjAddr: 0x4440, symBinAddr: 0x1000153C0, symSize: 0x30 }
  - { offsetInCU: 0xB289, offset: 0x3FF7E, size: 0x8, addend: 0x0, symName: '__ZZN14ProcessManager14moveToFinishedERKNSt3__112basic_stringIcNS0_11char_traitsIcEENS0_9allocatorIcEEEEENK3$_2clEP7Process', symObjAddr: 0x4470, symBinAddr: 0x1000153F0, symSize: 0x50 }
  - { offsetInCU: 0xB2C1, offset: 0x3FFB6, size: 0x8, addend: 0x0, symName: __ZNKSt3__16vectorIP7ProcessNS_9allocatorIS2_EEE6cbeginB8ue170006Ev, symObjAddr: 0x4500, symBinAddr: 0x100015480, symSize: 0x30 }
  - { offsetInCU: 0xB2E7, offset: 0x3FFDC, size: 0x8, addend: 0x0, symName: __ZNSt3__16vectorIP7ProcessNS_9allocatorIS2_EEE17__destruct_at_endB8ue170006EPS2_, symObjAddr: 0x4530, symBinAddr: 0x1000154B0, symSize: 0x50 }
  - { offsetInCU: 0xB32B, offset: 0x40020, size: 0x8, addend: 0x0, symName: __ZNKSt3__16vectorIP7ProcessNS_9allocatorIS2_EEE17__annotate_shrinkB8ue170006Em, symObjAddr: 0x45C0, symBinAddr: 0x100015540, symSize: 0xA0 }
  - { offsetInCU: 0xB36A, offset: 0x4005F, size: 0x8, addend: 0x0, symName: __ZNKSt3__114__move_trivialclB8ue170006IP7ProcessS3_Li0EEENS_4pairIPT_PT0_EES6_S6_S8_, symObjAddr: 0x4790, symBinAddr: 0x100015710, symSize: 0x3F }
  - { offsetInCU: 0x358C, offset: 0x436DF, size: 0x8, addend: 0x0, symName: __ZNSt3__1lsB8ue170006IcNS_11char_traitsIcEEEERNS_13basic_ostreamIT_T0_EES7_RKNS_9__iom_t10IS4_EE, symObjAddr: 0x900, symBinAddr: 0x100015E50, symSize: 0x200 }
  - { offsetInCU: 0x4499, offset: 0x445EC, size: 0x8, addend: 0x0, symName: __ZNSt3__18put_timeB8ue170006IcEENS_9__iom_t10IT_EEPK2tmPKS2_, symObjAddr: 0xB00, symBinAddr: 0x100016050, symSize: 0x30 }
  - { offsetInCU: 0x4531, offset: 0x44684, size: 0x8, addend: 0x0, symName: __ZNSt3__19use_facetB8ue170006INS_8time_putIcNS_19ostreambuf_iteratorIcNS_11char_traitsIcEEEEEEEERKT_RKNS_6localeE, symObjAddr: 0x2100, symBinAddr: 0x100016300, symSize: 0x22 }
  - { offsetInCU: 0x6765, offset: 0x468B8, size: 0x8, addend: 0x0, symName: __ZN7ProcessC2Ev, symObjAddr: 0x0, symBinAddr: 0x100015750, symSize: 0x20 }
  - { offsetInCU: 0x6791, offset: 0x468E4, size: 0x8, addend: 0x0, symName: __ZN7ProcessC1Ev, symObjAddr: 0x40, symBinAddr: 0x100015770, symSize: 0x20 }
  - { offsetInCU: 0x67BD, offset: 0x46910, size: 0x8, addend: 0x0, symName: __ZN7ProcessC2ENSt3__112basic_stringIcNS0_11char_traitsIcEENS0_9allocatorIcEEEEx, symObjAddr: 0x60, symBinAddr: 0x100015790, symSize: 0xA0 }
  - { offsetInCU: 0x6806, offset: 0x46959, size: 0x8, addend: 0x0, symName: __ZN7ProcessC1ENSt3__112basic_stringIcNS0_11char_traitsIcEENS0_9allocatorIcEEEEx, symObjAddr: 0x100, symBinAddr: 0x100015830, symSize: 0x30 }
  - { offsetInCU: 0x684F, offset: 0x469A2, size: 0x8, addend: 0x0, symName: __ZN7Process9printInfoEv, symObjAddr: 0x130, symBinAddr: 0x100015860, symSize: 0x210 }
  - { offsetInCU: 0x6877, offset: 0x469CA, size: 0x8, addend: 0x0, symName: __ZNK7Process7getNameEv, symObjAddr: 0x3D0, symBinAddr: 0x100015A70, symSize: 0x30 }
  - { offsetInCU: 0x689F, offset: 0x469F2, size: 0x8, addend: 0x0, symName: __ZNK7Process25getCurrentInstructionLineEv, symObjAddr: 0x470, symBinAddr: 0x100015AA0, symSize: 0x20 }
  - { offsetInCU: 0x68C7, offset: 0x46A1A, size: 0x8, addend: 0x0, symName: __ZNK7Process8getStateEv, symObjAddr: 0x490, symBinAddr: 0x100015AC0, symSize: 0x20 }
  - { offsetInCU: 0x68EF, offset: 0x46A42, size: 0x8, addend: 0x0, symName: __ZNK7Process19getTotalLinesOfCodeEv, symObjAddr: 0x4B0, symBinAddr: 0x100015AE0, symSize: 0x20 }
  - { offsetInCU: 0x6917, offset: 0x46A6A, size: 0x8, addend: 0x0, symName: __ZN7Process12getTimestampEv, symObjAddr: 0x4D0, symBinAddr: 0x100015B00, symSize: 0x100 }
  - { offsetInCU: 0x695D, offset: 0x46AB0, size: 0x8, addend: 0x0, symName: __ZN7Process4drawEv, symObjAddr: 0x5D0, symBinAddr: 0x100015C00, symSize: 0x150 }
  - { offsetInCU: 0x69A1, offset: 0x46AF4, size: 0x8, addend: 0x0, symName: __ZN7Process8nextLineEv, symObjAddr: 0x800, symBinAddr: 0x100015D50, symSize: 0x20 }
  - { offsetInCU: 0x6A19, offset: 0x46B6C, size: 0x8, addend: 0x0, symName: __ZNSt3__119basic_ostringstreamIcNS_11char_traitsIcEENS_9allocatorIcEEEC1B8ue170006Ev, symObjAddr: 0x820, symBinAddr: 0x100015D70, symSize: 0xE0 }
  - { offsetInCU: 0x6A43, offset: 0x46B96, size: 0x8, addend: 0x0, symName: __ZNKSt3__119basic_ostringstreamIcNS_11char_traitsIcEENS_9allocatorIcEEE3strB8ue170006Ev, symObjAddr: 0xB30, symBinAddr: 0x100016080, symSize: 0x30 }
  - { offsetInCU: 0x6A6F, offset: 0x46BC2, size: 0x8, addend: 0x0, symName: __ZNSt3__119basic_ostringstreamIcNS_11char_traitsIcEENS_9allocatorIcEEED1Ev, symObjAddr: 0xB60, symBinAddr: 0x1000160B0, symSize: 0x40 }
  - { offsetInCU: 0x6A9B, offset: 0x46BEE, size: 0x8, addend: 0x0, symName: __ZN7Process8setStateENS_12ProcessStateE, symObjAddr: 0xBA0, symBinAddr: 0x1000160F0, symSize: 0x20 }
  - { offsetInCU: 0x6AD1, offset: 0x46C24, size: 0x8, addend: 0x0, symName: __ZN7Process12getCPUCoreIDEv, symObjAddr: 0xBC0, symBinAddr: 0x100016110, symSize: 0x20 }
  - { offsetInCU: 0x6AF9, offset: 0x46C4C, size: 0x8, addend: 0x0, symName: __ZN7Process12setCPUCoreIDEi, symObjAddr: 0xBE0, symBinAddr: 0x100016130, symSize: 0x20 }
  - { offsetInCU: 0x6B30, offset: 0x46C83, size: 0x8, addend: 0x0, symName: __ZNSt3__119basic_ostringstreamIcNS_11char_traitsIcEENS_9allocatorIcEEED2Ev, symObjAddr: 0xC00, symBinAddr: 0x100016150, symSize: 0x60 }
  - { offsetInCU: 0x6B6A, offset: 0x46CBD, size: 0x8, addend: 0x0, symName: __ZTv0_n24_NSt3__119basic_ostringstreamIcNS_11char_traitsIcEENS_9allocatorIcEEED1Ev, symObjAddr: 0xC60, symBinAddr: 0x1000161B0, symSize: 0x20 }
  - { offsetInCU: 0x6BA3, offset: 0x46CF6, size: 0x8, addend: 0x0, symName: __ZNSt3__113basic_ostreamIcNS_11char_traitsIcEEEC2B8ue170006EPNS_15basic_streambufIcS2_EE, symObjAddr: 0x1F60, symBinAddr: 0x1000161D0, symSize: 0x50 }
  - { offsetInCU: 0x6BE8, offset: 0x46D3B, size: 0x8, addend: 0x0, symName: __ZNSt3__115basic_stringbufIcNS_11char_traitsIcEENS_9allocatorIcEEEC1B8ue170006Ej, symObjAddr: 0x1FB0, symBinAddr: 0x100016220, symSize: 0x30 }
  - { offsetInCU: 0x6C21, offset: 0x46D74, size: 0x8, addend: 0x0, symName: __ZNSt3__115basic_stringbufIcNS_11char_traitsIcEENS_9allocatorIcEEEC2B8ue170006Ej, symObjAddr: 0x2050, symBinAddr: 0x100016250, symSize: 0x50 }
  - { offsetInCU: 0x6C5F, offset: 0x46DB2, size: 0x8, addend: 0x0, symName: __ZNSt3__19__iom_t10IcEC1B8ue170006EPK2tmPKc, symObjAddr: 0x20A0, symBinAddr: 0x1000162A0, symSize: 0x30 }
  - { offsetInCU: 0x6CA7, offset: 0x46DFA, size: 0x8, addend: 0x0, symName: __ZNSt3__19__iom_t10IcEC2B8ue170006EPK2tmPKc, symObjAddr: 0x20D0, symBinAddr: 0x1000162D0, symSize: 0x30 }
...
